; Listing generated by Microsoft (R) Optimizing Compiler Version 14.00.50727.42 

	TITLE	c:\data\AsmBook5\examples\ch12\VisualCPP\FindArray\main.cpp
	.686P
	.XMM
	include listing.inc
	.model	flat

INCLUDELIB LIBCMT
INCLUDELIB OLDNAMES

PUBLIC	??_C@_0P@GHFPNOJB@bad?5allocation?$AA@		; `string'
PUBLIC	?collate@?$_Locbase@H@std@@2HB			; std::_Locbase<int>::collate
PUBLIC	?ctype@?$_Locbase@H@std@@2HB			; std::_Locbase<int>::ctype
PUBLIC	?monetary@?$_Locbase@H@std@@2HB			; std::_Locbase<int>::monetary
PUBLIC	?numeric@?$_Locbase@H@std@@2HB			; std::_Locbase<int>::numeric
PUBLIC	?time@?$_Locbase@H@std@@2HB			; std::_Locbase<int>::time
PUBLIC	?messages@?$_Locbase@H@std@@2HB			; std::_Locbase<int>::messages
PUBLIC	?all@?$_Locbase@H@std@@2HB			; std::_Locbase<int>::all
PUBLIC	?none@?$_Locbase@H@std@@2HB			; std::_Locbase<int>::none
PUBLIC	?table_size@?$ctype@D@std@@2IB			; std::ctype<char>::table_size
PUBLIC	?skipws@?$_Iosb@H@std@@2W4_Fmtflags@12@B	; std::_Iosb<int>::skipws
PUBLIC	?unitbuf@?$_Iosb@H@std@@2W4_Fmtflags@12@B	; std::_Iosb<int>::unitbuf
PUBLIC	?uppercase@?$_Iosb@H@std@@2W4_Fmtflags@12@B	; std::_Iosb<int>::uppercase
PUBLIC	?showbase@?$_Iosb@H@std@@2W4_Fmtflags@12@B	; std::_Iosb<int>::showbase
PUBLIC	?showpoint@?$_Iosb@H@std@@2W4_Fmtflags@12@B	; std::_Iosb<int>::showpoint
PUBLIC	?showpos@?$_Iosb@H@std@@2W4_Fmtflags@12@B	; std::_Iosb<int>::showpos
PUBLIC	?left@?$_Iosb@H@std@@2W4_Fmtflags@12@B		; std::_Iosb<int>::left
PUBLIC	?right@?$_Iosb@H@std@@2W4_Fmtflags@12@B		; std::_Iosb<int>::right
PUBLIC	?internal@?$_Iosb@H@std@@2W4_Fmtflags@12@B	; std::_Iosb<int>::internal
PUBLIC	?dec@?$_Iosb@H@std@@2W4_Fmtflags@12@B		; std::_Iosb<int>::dec
PUBLIC	?oct@?$_Iosb@H@std@@2W4_Fmtflags@12@B		; std::_Iosb<int>::oct
PUBLIC	?hex@?$_Iosb@H@std@@2W4_Fmtflags@12@B		; std::_Iosb<int>::hex
PUBLIC	?scientific@?$_Iosb@H@std@@2W4_Fmtflags@12@B	; std::_Iosb<int>::scientific
PUBLIC	?fixed@?$_Iosb@H@std@@2W4_Fmtflags@12@B		; std::_Iosb<int>::fixed
PUBLIC	?boolalpha@?$_Iosb@H@std@@2W4_Fmtflags@12@B	; std::_Iosb<int>::boolalpha
PUBLIC	?_Stdio@?$_Iosb@H@std@@2W4_Fmtflags@12@B	; std::_Iosb<int>::_Stdio
PUBLIC	?adjustfield@?$_Iosb@H@std@@2W4_Fmtflags@12@B	; std::_Iosb<int>::adjustfield
PUBLIC	?basefield@?$_Iosb@H@std@@2W4_Fmtflags@12@B	; std::_Iosb<int>::basefield
PUBLIC	?floatfield@?$_Iosb@H@std@@2W4_Fmtflags@12@B	; std::_Iosb<int>::floatfield
PUBLIC	?goodbit@?$_Iosb@H@std@@2W4_Iostate@12@B	; std::_Iosb<int>::goodbit
PUBLIC	?eofbit@?$_Iosb@H@std@@2W4_Iostate@12@B		; std::_Iosb<int>::eofbit
PUBLIC	?failbit@?$_Iosb@H@std@@2W4_Iostate@12@B	; std::_Iosb<int>::failbit
PUBLIC	?badbit@?$_Iosb@H@std@@2W4_Iostate@12@B		; std::_Iosb<int>::badbit
PUBLIC	?_Hardfail@?$_Iosb@H@std@@2W4_Iostate@12@B	; std::_Iosb<int>::_Hardfail
PUBLIC	?in@?$_Iosb@H@std@@2W4_Openmode@12@B		; std::_Iosb<int>::in
PUBLIC	?out@?$_Iosb@H@std@@2W4_Openmode@12@B		; std::_Iosb<int>::out
PUBLIC	?ate@?$_Iosb@H@std@@2W4_Openmode@12@B		; std::_Iosb<int>::ate
PUBLIC	?app@?$_Iosb@H@std@@2W4_Openmode@12@B		; std::_Iosb<int>::app
PUBLIC	?trunc@?$_Iosb@H@std@@2W4_Openmode@12@B		; std::_Iosb<int>::trunc
PUBLIC	?_Nocreate@?$_Iosb@H@std@@2W4_Openmode@12@B	; std::_Iosb<int>::_Nocreate
PUBLIC	?_Noreplace@?$_Iosb@H@std@@2W4_Openmode@12@B	; std::_Iosb<int>::_Noreplace
PUBLIC	?binary@?$_Iosb@H@std@@2W4_Openmode@12@B	; std::_Iosb<int>::binary
PUBLIC	?beg@?$_Iosb@H@std@@2W4_Seekdir@12@B		; std::_Iosb<int>::beg
PUBLIC	?cur@?$_Iosb@H@std@@2W4_Seekdir@12@B		; std::_Iosb<int>::cur
PUBLIC	?end@?$_Iosb@H@std@@2W4_Seekdir@12@B		; std::_Iosb<int>::end
;	COMDAT ?end@?$_Iosb@H@std@@2W4_Seekdir@12@B
CONST	SEGMENT
?end@?$_Iosb@H@std@@2W4_Seekdir@12@B DD 02H		; std::_Iosb<int>::end
CONST	ENDS
;	COMDAT ?cur@?$_Iosb@H@std@@2W4_Seekdir@12@B
CONST	SEGMENT
?cur@?$_Iosb@H@std@@2W4_Seekdir@12@B DD 01H		; std::_Iosb<int>::cur
CONST	ENDS
;	COMDAT ?beg@?$_Iosb@H@std@@2W4_Seekdir@12@B
CONST	SEGMENT
?beg@?$_Iosb@H@std@@2W4_Seekdir@12@B DD 00H		; std::_Iosb<int>::beg
CONST	ENDS
;	COMDAT ?binary@?$_Iosb@H@std@@2W4_Openmode@12@B
CONST	SEGMENT
?binary@?$_Iosb@H@std@@2W4_Openmode@12@B DD 020H	; std::_Iosb<int>::binary
CONST	ENDS
;	COMDAT ?_Noreplace@?$_Iosb@H@std@@2W4_Openmode@12@B
CONST	SEGMENT
?_Noreplace@?$_Iosb@H@std@@2W4_Openmode@12@B DD 080H	; std::_Iosb<int>::_Noreplace
CONST	ENDS
;	COMDAT ?_Nocreate@?$_Iosb@H@std@@2W4_Openmode@12@B
CONST	SEGMENT
?_Nocreate@?$_Iosb@H@std@@2W4_Openmode@12@B DD 040H	; std::_Iosb<int>::_Nocreate
CONST	ENDS
;	COMDAT ?trunc@?$_Iosb@H@std@@2W4_Openmode@12@B
CONST	SEGMENT
?trunc@?$_Iosb@H@std@@2W4_Openmode@12@B DD 010H		; std::_Iosb<int>::trunc
CONST	ENDS
;	COMDAT ?app@?$_Iosb@H@std@@2W4_Openmode@12@B
CONST	SEGMENT
?app@?$_Iosb@H@std@@2W4_Openmode@12@B DD 08H		; std::_Iosb<int>::app
CONST	ENDS
;	COMDAT ?ate@?$_Iosb@H@std@@2W4_Openmode@12@B
CONST	SEGMENT
?ate@?$_Iosb@H@std@@2W4_Openmode@12@B DD 04H		; std::_Iosb<int>::ate
CONST	ENDS
;	COMDAT ?out@?$_Iosb@H@std@@2W4_Openmode@12@B
CONST	SEGMENT
?out@?$_Iosb@H@std@@2W4_Openmode@12@B DD 02H		; std::_Iosb<int>::out
CONST	ENDS
;	COMDAT ?in@?$_Iosb@H@std@@2W4_Openmode@12@B
CONST	SEGMENT
?in@?$_Iosb@H@std@@2W4_Openmode@12@B DD 01H		; std::_Iosb<int>::in
CONST	ENDS
;	COMDAT ?_Hardfail@?$_Iosb@H@std@@2W4_Iostate@12@B
CONST	SEGMENT
?_Hardfail@?$_Iosb@H@std@@2W4_Iostate@12@B DD 010H	; std::_Iosb<int>::_Hardfail
CONST	ENDS
;	COMDAT ?badbit@?$_Iosb@H@std@@2W4_Iostate@12@B
CONST	SEGMENT
?badbit@?$_Iosb@H@std@@2W4_Iostate@12@B DD 04H		; std::_Iosb<int>::badbit
CONST	ENDS
;	COMDAT ?failbit@?$_Iosb@H@std@@2W4_Iostate@12@B
CONST	SEGMENT
?failbit@?$_Iosb@H@std@@2W4_Iostate@12@B DD 02H		; std::_Iosb<int>::failbit
CONST	ENDS
;	COMDAT ?eofbit@?$_Iosb@H@std@@2W4_Iostate@12@B
CONST	SEGMENT
?eofbit@?$_Iosb@H@std@@2W4_Iostate@12@B DD 01H		; std::_Iosb<int>::eofbit
CONST	ENDS
;	COMDAT ?goodbit@?$_Iosb@H@std@@2W4_Iostate@12@B
CONST	SEGMENT
?goodbit@?$_Iosb@H@std@@2W4_Iostate@12@B DD 00H		; std::_Iosb<int>::goodbit
CONST	ENDS
;	COMDAT ?floatfield@?$_Iosb@H@std@@2W4_Fmtflags@12@B
CONST	SEGMENT
?floatfield@?$_Iosb@H@std@@2W4_Fmtflags@12@B DD 03000H	; std::_Iosb<int>::floatfield
CONST	ENDS
;	COMDAT ?basefield@?$_Iosb@H@std@@2W4_Fmtflags@12@B
CONST	SEGMENT
?basefield@?$_Iosb@H@std@@2W4_Fmtflags@12@B DD 0e00H	; std::_Iosb<int>::basefield
CONST	ENDS
;	COMDAT ?adjustfield@?$_Iosb@H@std@@2W4_Fmtflags@12@B
CONST	SEGMENT
?adjustfield@?$_Iosb@H@std@@2W4_Fmtflags@12@B DD 01c0H	; std::_Iosb<int>::adjustfield
CONST	ENDS
;	COMDAT ?_Stdio@?$_Iosb@H@std@@2W4_Fmtflags@12@B
CONST	SEGMENT
?_Stdio@?$_Iosb@H@std@@2W4_Fmtflags@12@B DD 08000H	; std::_Iosb<int>::_Stdio
CONST	ENDS
;	COMDAT ?boolalpha@?$_Iosb@H@std@@2W4_Fmtflags@12@B
CONST	SEGMENT
?boolalpha@?$_Iosb@H@std@@2W4_Fmtflags@12@B DD 04000H	; std::_Iosb<int>::boolalpha
CONST	ENDS
;	COMDAT ?fixed@?$_Iosb@H@std@@2W4_Fmtflags@12@B
CONST	SEGMENT
?fixed@?$_Iosb@H@std@@2W4_Fmtflags@12@B DD 02000H	; std::_Iosb<int>::fixed
CONST	ENDS
;	COMDAT ?scientific@?$_Iosb@H@std@@2W4_Fmtflags@12@B
CONST	SEGMENT
?scientific@?$_Iosb@H@std@@2W4_Fmtflags@12@B DD 01000H	; std::_Iosb<int>::scientific
CONST	ENDS
;	COMDAT ?hex@?$_Iosb@H@std@@2W4_Fmtflags@12@B
CONST	SEGMENT
?hex@?$_Iosb@H@std@@2W4_Fmtflags@12@B DD 0800H		; std::_Iosb<int>::hex
CONST	ENDS
;	COMDAT ?oct@?$_Iosb@H@std@@2W4_Fmtflags@12@B
CONST	SEGMENT
?oct@?$_Iosb@H@std@@2W4_Fmtflags@12@B DD 0400H		; std::_Iosb<int>::oct
CONST	ENDS
;	COMDAT ?dec@?$_Iosb@H@std@@2W4_Fmtflags@12@B
CONST	SEGMENT
?dec@?$_Iosb@H@std@@2W4_Fmtflags@12@B DD 0200H		; std::_Iosb<int>::dec
CONST	ENDS
;	COMDAT ?internal@?$_Iosb@H@std@@2W4_Fmtflags@12@B
CONST	SEGMENT
?internal@?$_Iosb@H@std@@2W4_Fmtflags@12@B DD 0100H	; std::_Iosb<int>::internal
CONST	ENDS
;	COMDAT ?right@?$_Iosb@H@std@@2W4_Fmtflags@12@B
CONST	SEGMENT
?right@?$_Iosb@H@std@@2W4_Fmtflags@12@B DD 080H		; std::_Iosb<int>::right
CONST	ENDS
;	COMDAT ?left@?$_Iosb@H@std@@2W4_Fmtflags@12@B
CONST	SEGMENT
?left@?$_Iosb@H@std@@2W4_Fmtflags@12@B DD 040H		; std::_Iosb<int>::left
CONST	ENDS
;	COMDAT ?showpos@?$_Iosb@H@std@@2W4_Fmtflags@12@B
CONST	SEGMENT
?showpos@?$_Iosb@H@std@@2W4_Fmtflags@12@B DD 020H	; std::_Iosb<int>::showpos
CONST	ENDS
;	COMDAT ?showpoint@?$_Iosb@H@std@@2W4_Fmtflags@12@B
CONST	SEGMENT
?showpoint@?$_Iosb@H@std@@2W4_Fmtflags@12@B DD 010H	; std::_Iosb<int>::showpoint
CONST	ENDS
;	COMDAT ?showbase@?$_Iosb@H@std@@2W4_Fmtflags@12@B
CONST	SEGMENT
?showbase@?$_Iosb@H@std@@2W4_Fmtflags@12@B DD 08H	; std::_Iosb<int>::showbase
CONST	ENDS
;	COMDAT ?uppercase@?$_Iosb@H@std@@2W4_Fmtflags@12@B
CONST	SEGMENT
?uppercase@?$_Iosb@H@std@@2W4_Fmtflags@12@B DD 04H	; std::_Iosb<int>::uppercase
CONST	ENDS
;	COMDAT ?unitbuf@?$_Iosb@H@std@@2W4_Fmtflags@12@B
CONST	SEGMENT
?unitbuf@?$_Iosb@H@std@@2W4_Fmtflags@12@B DD 02H	; std::_Iosb<int>::unitbuf
CONST	ENDS
;	COMDAT ?skipws@?$_Iosb@H@std@@2W4_Fmtflags@12@B
CONST	SEGMENT
?skipws@?$_Iosb@H@std@@2W4_Fmtflags@12@B DD 01H		; std::_Iosb<int>::skipws
CONST	ENDS
;	COMDAT ?table_size@?$ctype@D@std@@2IB
CONST	SEGMENT
?table_size@?$ctype@D@std@@2IB DD 0100H			; std::ctype<char>::table_size
CONST	ENDS
;	COMDAT ?none@?$_Locbase@H@std@@2HB
CONST	SEGMENT
?none@?$_Locbase@H@std@@2HB DD 00H			; std::_Locbase<int>::none
CONST	ENDS
;	COMDAT ?all@?$_Locbase@H@std@@2HB
CONST	SEGMENT
?all@?$_Locbase@H@std@@2HB DD 03fH			; std::_Locbase<int>::all
CONST	ENDS
;	COMDAT ?messages@?$_Locbase@H@std@@2HB
CONST	SEGMENT
?messages@?$_Locbase@H@std@@2HB DD 020H			; std::_Locbase<int>::messages
CONST	ENDS
;	COMDAT ?time@?$_Locbase@H@std@@2HB
CONST	SEGMENT
?time@?$_Locbase@H@std@@2HB DD 010H			; std::_Locbase<int>::time
CONST	ENDS
;	COMDAT ?numeric@?$_Locbase@H@std@@2HB
CONST	SEGMENT
?numeric@?$_Locbase@H@std@@2HB DD 08H			; std::_Locbase<int>::numeric
CONST	ENDS
;	COMDAT ?monetary@?$_Locbase@H@std@@2HB
CONST	SEGMENT
?monetary@?$_Locbase@H@std@@2HB DD 04H			; std::_Locbase<int>::monetary
CONST	ENDS
;	COMDAT ?ctype@?$_Locbase@H@std@@2HB
CONST	SEGMENT
?ctype@?$_Locbase@H@std@@2HB DD 02H			; std::_Locbase<int>::ctype
CONST	ENDS
;	COMDAT ?collate@?$_Locbase@H@std@@2HB
CONST	SEGMENT
?collate@?$_Locbase@H@std@@2HB DD 01H			; std::_Locbase<int>::collate
CONST	ENDS
_DATA	SEGMENT
__bad_alloc_Message DD FLAT:??_C@_0P@GHFPNOJB@bad?5allocation?$AA@
_DATA	ENDS
;	COMDAT ??_C@_0P@GHFPNOJB@bad?5allocation?$AA@
CONST	SEGMENT
??_C@_0P@GHFPNOJB@bad?5allocation?$AA@ DB 'bad allocation', 00H ; `string'
CONST	ENDS
PUBLIC	??_7bad_alloc@std@@6B@				; std::bad_alloc::`vftable'
PUBLIC	??0bad_alloc@std@@QAE@PBD@Z			; std::bad_alloc::bad_alloc
PUBLIC	??_R4bad_alloc@std@@6B@				; std::bad_alloc::`RTTI Complete Object Locator'
PUBLIC	??_R0?AVbad_alloc@std@@@8			; std::bad_alloc `RTTI Type Descriptor'
PUBLIC	??_R3bad_alloc@std@@8				; std::bad_alloc::`RTTI Class Hierarchy Descriptor'
PUBLIC	??_R2bad_alloc@std@@8				; std::bad_alloc::`RTTI Base Class Array'
PUBLIC	??_R1A@?0A@EA@bad_alloc@std@@8			; std::bad_alloc::`RTTI Base Class Descriptor at (0,-1,0,64)'
PUBLIC	??_R1A@?0A@EA@exception@std@@8			; std::exception::`RTTI Base Class Descriptor at (0,-1,0,64)'
PUBLIC	??_R0?AVexception@std@@@8			; std::exception `RTTI Type Descriptor'
PUBLIC	??_R3exception@std@@8				; std::exception::`RTTI Class Hierarchy Descriptor'
PUBLIC	??_R2exception@std@@8				; std::exception::`RTTI Base Class Array'
EXTRN	??0exception@std@@QAE@ABQBD@Z:PROC		; std::exception::exception
EXTRN	??_7type_info@@6B@:QWORD			; type_info::`vftable'
EXTRN	??_Ebad_alloc@std@@UAEPAXI@Z:PROC		; std::bad_alloc::`vector deleting destructor'
EXTRN	?what@exception@std@@UBEPBDXZ:PROC		; std::exception::what
;	COMDAT ??_R2exception@std@@8
; File c:\program files\microsoft visual studio 8\vc\include\exception
rdata$r	SEGMENT
??_R2exception@std@@8 DD FLAT:??_R1A@?0A@EA@exception@std@@8 ; std::exception::`RTTI Base Class Array'
rdata$r	ENDS
;	COMDAT ??_R3exception@std@@8
rdata$r	SEGMENT
??_R3exception@std@@8 DD 00H				; std::exception::`RTTI Class Hierarchy Descriptor'
	DD	00H
	DD	01H
	DD	FLAT:??_R2exception@std@@8
rdata$r	ENDS
;	COMDAT ??_R0?AVexception@std@@@8
_DATA	SEGMENT
??_R0?AVexception@std@@@8 DD FLAT:??_7type_info@@6B@	; std::exception `RTTI Type Descriptor'
	DD	00H
	DB	'.?AVexception@std@@', 00H
_DATA	ENDS
;	COMDAT ??_R1A@?0A@EA@exception@std@@8
rdata$r	SEGMENT
??_R1A@?0A@EA@exception@std@@8 DD FLAT:??_R0?AVexception@std@@@8 ; std::exception::`RTTI Base Class Descriptor at (0,-1,0,64)'
	DD	00H
	DD	00H
	DD	0ffffffffH
	DD	00H
	DD	040H
	DD	FLAT:??_R3exception@std@@8
rdata$r	ENDS
;	COMDAT ??_R1A@?0A@EA@bad_alloc@std@@8
rdata$r	SEGMENT
??_R1A@?0A@EA@bad_alloc@std@@8 DD FLAT:??_R0?AVbad_alloc@std@@@8 ; std::bad_alloc::`RTTI Base Class Descriptor at (0,-1,0,64)'
	DD	01H
	DD	00H
	DD	0ffffffffH
	DD	00H
	DD	040H
	DD	FLAT:??_R3bad_alloc@std@@8
rdata$r	ENDS
;	COMDAT ??_R2bad_alloc@std@@8
rdata$r	SEGMENT
??_R2bad_alloc@std@@8 DD FLAT:??_R1A@?0A@EA@bad_alloc@std@@8 ; std::bad_alloc::`RTTI Base Class Array'
	DD	FLAT:??_R1A@?0A@EA@exception@std@@8
rdata$r	ENDS
;	COMDAT ??_R3bad_alloc@std@@8
rdata$r	SEGMENT
??_R3bad_alloc@std@@8 DD 00H				; std::bad_alloc::`RTTI Class Hierarchy Descriptor'
	DD	00H
	DD	02H
	DD	FLAT:??_R2bad_alloc@std@@8
rdata$r	ENDS
;	COMDAT ??_R0?AVbad_alloc@std@@@8
_DATA	SEGMENT
??_R0?AVbad_alloc@std@@@8 DD FLAT:??_7type_info@@6B@	; std::bad_alloc `RTTI Type Descriptor'
	DD	00H
	DB	'.?AVbad_alloc@std@@', 00H
_DATA	ENDS
;	COMDAT ??_R4bad_alloc@std@@6B@
rdata$r	SEGMENT
??_R4bad_alloc@std@@6B@ DD 00H				; std::bad_alloc::`RTTI Complete Object Locator'
	DD	00H
	DD	00H
	DD	FLAT:??_R0?AVbad_alloc@std@@@8
	DD	FLAT:??_R3bad_alloc@std@@8
rdata$r	ENDS
;	COMDAT ??_7bad_alloc@std@@6B@
CONST	SEGMENT
??_7bad_alloc@std@@6B@ DD FLAT:??_R4bad_alloc@std@@6B@	; std::bad_alloc::`vftable'
	DD	FLAT:??_Ebad_alloc@std@@UAEPAXI@Z
	DD	FLAT:?what@exception@std@@UBEPBDXZ
; Function compile flags: /Ogtpy
CONST	ENDS
;	COMDAT ??0bad_alloc@std@@QAE@PBD@Z
_TEXT	SEGMENT
__Message$ = 8						; size = 4
??0bad_alloc@std@@QAE@PBD@Z PROC			; std::bad_alloc::bad_alloc, COMDAT
; _this$ = ecx

; 339  : 		{	// construct from message string

	push	esi
	lea	eax, DWORD PTR __Message$[esp]
	push	eax
	mov	esi, ecx
	call	??0exception@std@@QAE@ABQBD@Z		; std::exception::exception
	mov	DWORD PTR [esi], OFFSET ??_7bad_alloc@std@@6B@

; 340  : 		}

	mov	eax, esi
	pop	esi
	ret	4
??0bad_alloc@std@@QAE@PBD@Z ENDP			; std::bad_alloc::bad_alloc
_TEXT	ENDS
PUBLIC	??1bad_alloc@std@@UAE@XZ			; std::bad_alloc::~bad_alloc
EXTRN	??1exception@std@@UAE@XZ:PROC			; std::exception::~exception
; Function compile flags: /Ogtpy
;	COMDAT ??1bad_alloc@std@@UAE@XZ
_TEXT	SEGMENT
??1bad_alloc@std@@UAE@XZ PROC				; std::bad_alloc::~bad_alloc, COMDAT
; _this$ = ecx

; 348  : 		{	// destroy the object

	mov	DWORD PTR [ecx], OFFSET ??_7bad_alloc@std@@6B@

; 349  : 		}

	jmp	??1exception@std@@UAE@XZ		; std::exception::~exception
??1bad_alloc@std@@UAE@XZ ENDP				; std::bad_alloc::~bad_alloc
_TEXT	ENDS
EXTRN	??3@YAXPAX@Z:PROC				; operator delete
; Function compile flags: /Ogtpy
;	COMDAT ??_Gbad_alloc@std@@UAEPAXI@Z
_TEXT	SEGMENT
___flags$ = 8						; size = 4
??_Gbad_alloc@std@@UAEPAXI@Z PROC			; std::bad_alloc::`scalar deleting destructor', COMDAT
; _this$ = ecx
	push	esi
	mov	esi, ecx
	mov	DWORD PTR [esi], OFFSET ??_7bad_alloc@std@@6B@
	call	??1exception@std@@UAE@XZ		; std::exception::~exception
	test	BYTE PTR ___flags$[esp], 1
	je	SHORT $LN6@scalar
	push	esi
	call	??3@YAXPAX@Z				; operator delete
	add	esp, 4
$LN6@scalar:
	mov	eax, esi
	pop	esi
	ret	4
??_Gbad_alloc@std@@UAEPAXI@Z ENDP			; std::bad_alloc::`scalar deleting destructor'
_TEXT	ENDS
PUBLIC	?assign@?$char_traits@D@std@@SAXAADABD@Z	; std::char_traits<char>::assign
; Function compile flags: /Ogtpy
; File c:\program files\microsoft visual studio 8\vc\include\iosfwd
;	COMDAT ?assign@?$char_traits@D@std@@SAXAADABD@Z
_TEXT	SEGMENT
__Left$ = 8						; size = 4
__Right$ = 12						; size = 4
?assign@?$char_traits@D@std@@SAXAADABD@Z PROC		; std::char_traits<char>::assign, COMDAT

; 418  : 		_Left = _Right;

	mov	eax, DWORD PTR __Right$[esp-4]
	mov	cl, BYTE PTR [eax]
	mov	edx, DWORD PTR __Left$[esp-4]
	mov	BYTE PTR [edx], cl

; 419  : 		}

	ret	0
?assign@?$char_traits@D@std@@SAXAADABD@Z ENDP		; std::char_traits<char>::assign
_TEXT	ENDS
PUBLIC	?length@?$char_traits@D@std@@SAIPBD@Z		; std::char_traits<char>::length
; Function compile flags: /Ogtpy
;	COMDAT ?length@?$char_traits@D@std@@SAIPBD@Z
_TEXT	SEGMENT
__First$ = 8						; size = 4
?length@?$char_traits@D@std@@SAIPBD@Z PROC		; std::char_traits<char>::length, COMDAT

; 441  : //		_DEBUG_POINTER(_First);
; 442  : 		return (::strlen(_First));

	mov	eax, DWORD PTR __First$[esp-4]
	lea	edx, DWORD PTR [eax+1]
$LL3@length:
	mov	cl, BYTE PTR [eax]
	add	eax, 1
	test	cl, cl
	jne	SHORT $LL3@length
	sub	eax, edx

; 443  : 		}

	ret	0
?length@?$char_traits@D@std@@SAIPBD@Z ENDP		; std::char_traits<char>::length
_TEXT	ENDS
PUBLIC	?_Copy_s@?$char_traits@D@std@@SAPADPADIPBDI@Z	; std::char_traits<char>::_Copy_s
EXTRN	_memcpy_s:PROC
; Function compile flags: /Ogtpy
;	COMDAT ?_Copy_s@?$char_traits@D@std@@SAPADPADIPBDI@Z
_TEXT	SEGMENT
__First1$ = 8						; size = 4
__Size_in_bytes$ = 12					; size = 4
__First2$ = 16						; size = 4
__Count$ = 20						; size = 4
?_Copy_s@?$char_traits@D@std@@SAPADPADIPBDI@Z PROC	; std::char_traits<char>::_Copy_s, COMDAT

; 456  : //		_DEBUG_POINTER(_First1);
; 457  : //		_DEBUG_POINTER(_First2);
; 458  : 		_CRT_SECURE_MEMCPY(_First1, _Size_in_bytes, _First2, _Count);

	mov	eax, DWORD PTR __Count$[esp-4]
	mov	ecx, DWORD PTR __First2$[esp-4]
	mov	edx, DWORD PTR __Size_in_bytes$[esp-4]
	push	esi
	mov	esi, DWORD PTR __First1$[esp]
	push	eax
	push	ecx
	push	edx
	push	esi
	call	_memcpy_s
	add	esp, 16					; 00000010H

; 459  : 		return _First1;

	mov	eax, esi
	pop	esi

; 460  : 		}

	ret	0
?_Copy_s@?$char_traits@D@std@@SAPADPADIPBDI@Z ENDP	; std::char_traits<char>::_Copy_s
_TEXT	ENDS
PUBLIC	?_Move_s@?$char_traits@D@std@@SAPADPADIPBDI@Z	; std::char_traits<char>::_Move_s
EXTRN	_memmove_s:PROC
; Function compile flags: /Ogtpy
;	COMDAT ?_Move_s@?$char_traits@D@std@@SAPADPADIPBDI@Z
_TEXT	SEGMENT
__First1$ = 8						; size = 4
__Size_in_bytes$ = 12					; size = 4
__First2$ = 16						; size = 4
__Count$ = 20						; size = 4
?_Move_s@?$char_traits@D@std@@SAPADPADIPBDI@Z PROC	; std::char_traits<char>::_Move_s, COMDAT

; 480  : //		_DEBUG_POINTER(_First1);
; 481  : //		_DEBUG_POINTER(_First2);
; 482  : 		_CRT_SECURE_MEMMOVE(_First1, _Size_in_bytes, _First2, _Count);

	mov	eax, DWORD PTR __Count$[esp-4]
	mov	ecx, DWORD PTR __First2$[esp-4]
	mov	edx, DWORD PTR __Size_in_bytes$[esp-4]
	push	esi
	mov	esi, DWORD PTR __First1$[esp]
	push	eax
	push	ecx
	push	edx
	push	esi
	call	_memmove_s
	add	esp, 16					; 00000010H

; 483  : 		return _First1;

	mov	eax, esi
	pop	esi

; 484  : 		}

	ret	0
?_Move_s@?$char_traits@D@std@@SAPADPADIPBDI@Z ENDP	; std::char_traits<char>::_Move_s
_TEXT	ENDS
PUBLIC	?to_char_type@?$char_traits@D@std@@SADABH@Z	; std::char_traits<char>::to_char_type
; Function compile flags: /Ogtpy
;	COMDAT ?to_char_type@?$char_traits@D@std@@SADABH@Z
_TEXT	SEGMENT
__Meta$ = 8						; size = 4
?to_char_type@?$char_traits@D@std@@SADABH@Z PROC	; std::char_traits<char>::to_char_type, COMDAT

; 494  : 		return ((_Elem)_Meta);

	mov	eax, DWORD PTR __Meta$[esp-4]
	mov	al, BYTE PTR [eax]

; 495  : 		}

	ret	0
?to_char_type@?$char_traits@D@std@@SADABH@Z ENDP	; std::char_traits<char>::to_char_type
_TEXT	ENDS
PUBLIC	?to_int_type@?$char_traits@D@std@@SAHABD@Z	; std::char_traits<char>::to_int_type
; Function compile flags: /Ogtpy
;	COMDAT ?to_int_type@?$char_traits@D@std@@SAHABD@Z
_TEXT	SEGMENT
__Ch$ = 8						; size = 4
?to_int_type@?$char_traits@D@std@@SAHABD@Z PROC		; std::char_traits<char>::to_int_type, COMDAT

; 499  : 		return ((unsigned char)_Ch);

	mov	eax, DWORD PTR __Ch$[esp-4]
	movzx	eax, BYTE PTR [eax]

; 500  : 		}

	ret	0
?to_int_type@?$char_traits@D@std@@SAHABD@Z ENDP		; std::char_traits<char>::to_int_type
_TEXT	ENDS
PUBLIC	?eq_int_type@?$char_traits@D@std@@SA_NABH0@Z	; std::char_traits<char>::eq_int_type
; Function compile flags: /Ogtpy
;	COMDAT ?eq_int_type@?$char_traits@D@std@@SA_NABH0@Z
_TEXT	SEGMENT
__Left$ = 8						; size = 4
__Right$ = 12						; size = 4
?eq_int_type@?$char_traits@D@std@@SA_NABH0@Z PROC	; std::char_traits<char>::eq_int_type, COMDAT

; 505  : 		return (_Left == _Right);

	mov	eax, DWORD PTR __Left$[esp-4]
	mov	ecx, DWORD PTR [eax]
	mov	edx, DWORD PTR __Right$[esp-4]
	xor	eax, eax
	cmp	ecx, DWORD PTR [edx]
	sete	al

; 506  : 		}

	ret	0
?eq_int_type@?$char_traits@D@std@@SA_NABH0@Z ENDP	; std::char_traits<char>::eq_int_type
_TEXT	ENDS
PUBLIC	?eof@?$char_traits@D@std@@SAHXZ			; std::char_traits<char>::eof
; Function compile flags: /Ogtpy
;	COMDAT ?eof@?$char_traits@D@std@@SAHXZ
_TEXT	SEGMENT
?eof@?$char_traits@D@std@@SAHXZ PROC			; std::char_traits<char>::eof, COMDAT

; 510  : 		return (EOF);

	or	eax, -1

; 511  : 		}

	ret	0
?eof@?$char_traits@D@std@@SAHXZ ENDP			; std::char_traits<char>::eof
_TEXT	ENDS
PUBLIC	??0_Iterator_base@std@@QAE@XZ			; std::_Iterator_base::_Iterator_base
; Function compile flags: /Ogtpy
; File c:\program files\microsoft visual studio 8\vc\include\xutility
;	COMDAT ??0_Iterator_base@std@@QAE@XZ
_TEXT	SEGMENT
??0_Iterator_base@std@@QAE@XZ PROC			; std::_Iterator_base::_Iterator_base, COMDAT
; _this$ = ecx

; 403  : 		{

	mov	eax, ecx
	mov	DWORD PTR [eax], 0

; 404  : 		}

	ret	0
??0_Iterator_base@std@@QAE@XZ ENDP			; std::_Iterator_base::_Iterator_base
_TEXT	ENDS
PUBLIC	?_Getctype@_Locinfo@std@@QBE?AU_Ctypevec@@XZ	; std::_Locinfo::_Getctype
EXTRN	__Getctype:PROC
; Function compile flags: /Ogtpy
; File c:\program files\microsoft visual studio 8\vc\include\xlocinfo
;	COMDAT ?_Getctype@_Locinfo@std@@QBE?AU_Ctypevec@@XZ
_TEXT	SEGMENT
$T19839 = -16						; size = 16
___$ReturnUdt$ = 8					; size = 4
?_Getctype@_Locinfo@std@@QBE?AU_Ctypevec@@XZ PROC	; std::_Locinfo::_Getctype, COMDAT
; _this$ = ecx

; 114  : 		{	// return ctype stuff

	sub	esp, 16					; 00000010H

; 115  : 		return (::_Getctype());

	lea	eax, DWORD PTR $T19839[esp+16]
	push	eax
	call	__Getctype
	mov	ecx, DWORD PTR ___$ReturnUdt$[esp+16]
	mov	edx, DWORD PTR [eax]
	mov	DWORD PTR [ecx], edx
	mov	edx, DWORD PTR [eax+4]
	mov	DWORD PTR [ecx+4], edx
	mov	edx, DWORD PTR [eax+8]
	mov	eax, DWORD PTR [eax+12]
	mov	DWORD PTR [ecx+8], edx
	mov	DWORD PTR [ecx+12], eax
	mov	eax, ecx

; 116  : 		}

	add	esp, 20					; 00000014H
	ret	4
?_Getctype@_Locinfo@std@@QBE?AU_Ctypevec@@XZ ENDP	; std::_Locinfo::_Getctype
_TEXT	ENDS
PUBLIC	?_Getcvt@_Locinfo@std@@QBE?AU_Cvtvec@@XZ	; std::_Locinfo::_Getcvt
EXTRN	__Getcvt:PROC
; Function compile flags: /Ogtpy
;	COMDAT ?_Getcvt@_Locinfo@std@@QBE?AU_Cvtvec@@XZ
_TEXT	SEGMENT
___$ReturnUdt$ = 8					; size = 4
?_Getcvt@_Locinfo@std@@QBE?AU_Cvtvec@@XZ PROC		; std::_Locinfo::_Getcvt, COMDAT
; _this$ = ecx

; 120  : 		return (::_Getcvt());

	call	__Getcvt
	mov	ecx, eax
	mov	eax, DWORD PTR ___$ReturnUdt$[esp-4]
	mov	DWORD PTR [eax], ecx
	mov	DWORD PTR [eax+4], edx

; 121  : 		}

	ret	4
?_Getcvt@_Locinfo@std@@QBE?AU_Cvtvec@@XZ ENDP		; std::_Locinfo::_Getcvt
_TEXT	ENDS
PUBLIC	??0id@locale@std@@QAE@I@Z			; std::locale::id::id
; Function compile flags: /Ogtpy
; File c:\program files\microsoft visual studio 8\vc\include\xlocale
;	COMDAT ??0id@locale@std@@QAE@I@Z
_TEXT	SEGMENT
__Val$ = 8						; size = 4
??0id@locale@std@@QAE@I@Z PROC				; std::locale::id::id, COMDAT
; _this$ = ecx

; 73   : 			{	// construct with specified stamp value

	mov	eax, ecx
	mov	ecx, DWORD PTR __Val$[esp-4]
	mov	DWORD PTR [eax], ecx

; 74   : 			}

	ret	4
??0id@locale@std@@QAE@I@Z ENDP				; std::locale::id::id
_TEXT	ENDS
PUBLIC	??Bid@locale@std@@QAEIXZ			; std::locale::id::operator unsigned int
EXTRN	??1_Lockit@std@@QAE@XZ:PROC			; std::_Lockit::~_Lockit
EXTRN	?_Id_cnt@id@locale@std@@0HA:DWORD		; std::locale::id::_Id_cnt
EXTRN	??0_Lockit@std@@QAE@H@Z:PROC			; std::_Lockit::_Lockit
; Function compile flags: /Ogtpy
;	COMDAT ??Bid@locale@std@@QAEIXZ
_TEXT	SEGMENT
__Lock$11228 = -4					; size = 4
??Bid@locale@std@@QAEIXZ PROC				; std::locale::id::operator unsigned int, COMDAT
; _this$ = ecx

; 77   : 			{	// get stamp, with lazy allocation

	push	ecx
	push	esi
	mov	esi, ecx

; 78   : 			if (_Id == 0)

	cmp	DWORD PTR [esi], 0
	jne	SHORT $LN6@operator

; 79   : 				{	// still zero, allocate stamp
; 80   : 				_BEGIN_LOCK(_LOCK_LOCALE)

	push	0
	lea	ecx, DWORD PTR __Lock$11228[esp+12]
	call	??0_Lockit@std@@QAE@H@Z			; std::_Lockit::_Lockit

; 81   : 					if (_Id == 0)

	cmp	DWORD PTR [esi], 0
	jne	SHORT $LN1@operator

; 82   : 						_Id = ++_Id_cnt;

	mov	eax, DWORD PTR ?_Id_cnt@id@locale@std@@0HA ; std::locale::id::_Id_cnt
	add	eax, 1
	mov	DWORD PTR ?_Id_cnt@id@locale@std@@0HA, eax ; std::locale::id::_Id_cnt
	mov	DWORD PTR [esi], eax
$LN1@operator:

; 83   : 				_END_LOCK()

	lea	ecx, DWORD PTR __Lock$11228[esp+8]
	call	??1_Lockit@std@@QAE@XZ			; std::_Lockit::~_Lockit
$LN6@operator:

; 84   : 				}
; 85   : 			return (_Id);

	mov	eax, DWORD PTR [esi]
	pop	esi

; 86   : 			}

	pop	ecx
	ret	0
??Bid@locale@std@@QAEIXZ ENDP				; std::locale::id::operator unsigned int
_TEXT	ENDS
PUBLIC	?_Incref@facet@locale@std@@QAEXXZ		; std::locale::facet::_Incref
; Function compile flags: /Ogtpy
;	COMDAT ?_Incref@facet@locale@std@@QAEXXZ
_TEXT	SEGMENT
__Lock$11234 = -4					; size = 4
?_Incref@facet@locale@std@@QAEXXZ PROC			; std::locale::facet::_Incref, COMDAT
; _this$ = ecx

; 116  : 			{	// safely increment the reference count

	push	ecx
	push	esi
	mov	esi, ecx

; 117  : 			_BEGIN_LOCK(_LOCK_LOCALE)

	push	0
	lea	ecx, DWORD PTR __Lock$11234[esp+12]
	call	??0_Lockit@std@@QAE@H@Z			; std::_Lockit::_Lockit

; 118  : 				if (_Refs < (size_t)(-1))

	mov	eax, DWORD PTR [esi+4]
	cmp	eax, -1
	jae	SHORT $LN1@Incref

; 119  : 					++_Refs;

	add	eax, 1
	mov	DWORD PTR [esi+4], eax
$LN1@Incref:

; 120  : 			_END_LOCK()

	lea	ecx, DWORD PTR __Lock$11234[esp+8]
	call	??1_Lockit@std@@QAE@XZ			; std::_Lockit::~_Lockit
	pop	esi

; 121  : 			}

	pop	ecx
	ret	0
?_Incref@facet@locale@std@@QAEXXZ ENDP			; std::locale::facet::_Incref
_TEXT	ENDS
PUBLIC	?_Decref@facet@locale@std@@QAEPAV123@XZ		; std::locale::facet::_Decref
; Function compile flags: /Ogtpy
;	COMDAT ?_Decref@facet@locale@std@@QAEPAV123@XZ
_TEXT	SEGMENT
__Lock$11239 = -4					; size = 4
?_Decref@facet@locale@std@@QAEPAV123@XZ PROC		; std::locale::facet::_Decref, COMDAT
; _this$ = ecx

; 124  : 			{	// safely decrement the reference count, return this when dead

	push	ecx
	push	esi
	push	edi
	mov	edi, ecx

; 125  : 			_BEGIN_LOCK(_LOCK_LOCALE)

	push	0
	lea	ecx, DWORD PTR __Lock$11239[esp+16]
	call	??0_Lockit@std@@QAE@H@Z			; std::_Lockit::_Lockit

; 126  : 				if (0 < _Refs && _Refs < (size_t)(-1))

	mov	eax, DWORD PTR [edi+4]
	test	eax, eax
	jbe	SHORT $LN1@Decref
	cmp	eax, -1
	jae	SHORT $LN1@Decref

; 127  : 					--_Refs;

	add	eax, -1
	mov	DWORD PTR [edi+4], eax
$LN1@Decref:

; 128  : 				return (_Refs == 0 ? this : 0);

	mov	esi, DWORD PTR [edi+4]
	neg	esi
	sbb	esi, esi
	not	esi
	lea	ecx, DWORD PTR __Lock$11239[esp+12]
	and	esi, edi
	call	??1_Lockit@std@@QAE@XZ			; std::_Lockit::~_Lockit
	pop	edi
	mov	eax, esi
	pop	esi

; 129  : 			_END_LOCK()
; 130  : 			}

	pop	ecx
	ret	0
?_Decref@facet@locale@std@@QAEPAV123@XZ ENDP		; std::locale::facet::_Decref
_TEXT	ENDS
PUBLIC	?_Register@facet@locale@std@@QAEXXZ		; std::locale::facet::_Register
EXTRN	?facet_Register@facet@locale@std@@CAXPAV123@@Z:PROC ; std::locale::facet::facet_Register
; Function compile flags: /Ogtpy
;	COMDAT ?_Register@facet@locale@std@@QAEXXZ
_TEXT	SEGMENT
?_Register@facet@locale@std@@QAEXXZ PROC		; std::locale::facet::_Register, COMDAT
; _this$ = ecx

; 134  : 			facet_Register(this);

	push	ecx
	call	?facet_Register@facet@locale@std@@CAXPAV123@@Z ; std::locale::facet::facet_Register
	pop	ecx

; 135  : 			}

	ret	0
?_Register@facet@locale@std@@QAEXXZ ENDP		; std::locale::facet::_Register
_TEXT	ENDS
PUBLIC	??_7facet@locale@std@@6B@			; std::locale::facet::`vftable'
PUBLIC	??1facet@locale@std@@UAE@XZ			; std::locale::facet::~facet
PUBLIC	??_R4facet@locale@std@@6B@			; std::locale::facet::`RTTI Complete Object Locator'
PUBLIC	??_R0?AVfacet@locale@std@@@8			; std::locale::facet `RTTI Type Descriptor'
PUBLIC	??_R3facet@locale@std@@8			; std::locale::facet::`RTTI Class Hierarchy Descriptor'
PUBLIC	??_R2facet@locale@std@@8			; std::locale::facet::`RTTI Base Class Array'
PUBLIC	??_R1A@?0A@EA@facet@locale@std@@8		; std::locale::facet::`RTTI Base Class Descriptor at (0,-1,0,64)'
EXTRN	??_Efacet@locale@std@@UAEPAXI@Z:PROC		; std::locale::facet::`vector deleting destructor'
;	COMDAT ??_R1A@?0A@EA@facet@locale@std@@8
rdata$r	SEGMENT
??_R1A@?0A@EA@facet@locale@std@@8 DD FLAT:??_R0?AVfacet@locale@std@@@8 ; std::locale::facet::`RTTI Base Class Descriptor at (0,-1,0,64)'
	DD	00H
	DD	00H
	DD	0ffffffffH
	DD	00H
	DD	040H
	DD	FLAT:??_R3facet@locale@std@@8
rdata$r	ENDS
;	COMDAT ??_R2facet@locale@std@@8
rdata$r	SEGMENT
??_R2facet@locale@std@@8 DD FLAT:??_R1A@?0A@EA@facet@locale@std@@8 ; std::locale::facet::`RTTI Base Class Array'
rdata$r	ENDS
;	COMDAT ??_R3facet@locale@std@@8
rdata$r	SEGMENT
??_R3facet@locale@std@@8 DD 00H				; std::locale::facet::`RTTI Class Hierarchy Descriptor'
	DD	00H
	DD	01H
	DD	FLAT:??_R2facet@locale@std@@8
rdata$r	ENDS
;	COMDAT ??_R0?AVfacet@locale@std@@@8
_DATA	SEGMENT
??_R0?AVfacet@locale@std@@@8 DD FLAT:??_7type_info@@6B@	; std::locale::facet `RTTI Type Descriptor'
	DD	00H
	DB	'.?AVfacet@locale@std@@', 00H
_DATA	ENDS
;	COMDAT ??_R4facet@locale@std@@6B@
rdata$r	SEGMENT
??_R4facet@locale@std@@6B@ DD 00H			; std::locale::facet::`RTTI Complete Object Locator'
	DD	00H
	DD	00H
	DD	FLAT:??_R0?AVfacet@locale@std@@@8
	DD	FLAT:??_R3facet@locale@std@@8
rdata$r	ENDS
;	COMDAT ??_7facet@locale@std@@6B@
CONST	SEGMENT
??_7facet@locale@std@@6B@ DD FLAT:??_R4facet@locale@std@@6B@ ; std::locale::facet::`vftable'
	DD	FLAT:??_Efacet@locale@std@@UAEPAXI@Z
; Function compile flags: /Ogtpy
CONST	ENDS
;	COMDAT ??1facet@locale@std@@UAE@XZ
_TEXT	SEGMENT
??1facet@locale@std@@UAE@XZ PROC			; std::locale::facet::~facet, COMDAT
; _this$ = ecx

; 165  : 			{	// destroy the object

	mov	DWORD PTR [ecx], OFFSET ??_7facet@locale@std@@6B@

; 166  : 			}

	ret	0
??1facet@locale@std@@UAE@XZ ENDP			; std::locale::facet::~facet
_TEXT	ENDS
PUBLIC	??0facet@locale@std@@IAE@I@Z			; std::locale::facet::facet
; Function compile flags: /Ogtpy
;	COMDAT ??0facet@locale@std@@IAE@I@Z
_TEXT	SEGMENT
__Initrefs$ = 8						; size = 4
??0facet@locale@std@@IAE@I@Z PROC			; std::locale::facet::facet, COMDAT
; _this$ = ecx

; 171  : 			{	// construct with initial reference count

	mov	eax, ecx
	mov	ecx, DWORD PTR __Initrefs$[esp-4]
	mov	DWORD PTR [eax], OFFSET ??_7facet@locale@std@@6B@
	mov	DWORD PTR [eax+4], ecx

; 172  : 			}

	ret	4
??0facet@locale@std@@IAE@I@Z ENDP			; std::locale::facet::facet
_TEXT	ENDS
PUBLIC	??0locale@std@@QAE@ABV01@@Z			; std::locale::locale
; Function compile flags: /Ogtpy
;	COMDAT ??0locale@std@@QAE@ABV01@@Z
_TEXT	SEGMENT
__Lock$19867 = 8					; size = 4
__Right$ = 8						; size = 4
??0locale@std@@QAE@ABV01@@Z PROC			; std::locale::locale, COMDAT
; _this$ = ecx

; 318  : 		{	// construct by copying

	mov	eax, DWORD PTR __Right$[esp-4]
	push	esi
	mov	esi, DWORD PTR [eax]
	push	edi
	mov	edi, ecx

; 319  : 		_Ptr->_Incref();

	push	0
	lea	ecx, DWORD PTR __Lock$19867[esp+8]
	mov	DWORD PTR [edi], esi
	call	??0_Lockit@std@@QAE@H@Z			; std::_Lockit::_Lockit
	mov	eax, DWORD PTR [esi+4]
	cmp	eax, -1
	jae	SHORT $LN3@locale
	add	eax, 1
	mov	DWORD PTR [esi+4], eax
$LN3@locale:
	lea	ecx, DWORD PTR __Lock$19867[esp+4]
	call	??1_Lockit@std@@QAE@XZ			; std::_Lockit::~_Lockit

; 320  : 		}

	mov	eax, edi
	pop	edi
	pop	esi
	ret	4
??0locale@std@@QAE@ABV01@@Z ENDP			; std::locale::locale
_TEXT	ENDS
PUBLIC	??1locale@std@@QAE@XZ				; std::locale::~locale
; Function compile flags: /Ogtpy
;	COMDAT ??1locale@std@@QAE@XZ
_TEXT	SEGMENT
__Lock$19881 = -4					; size = 4
??1locale@std@@QAE@XZ PROC				; std::locale::~locale, COMDAT
; _this$ = ecx

; 374  : 		{	// destroy the object

	push	ecx
	push	edi

; 375  : 		if (_Ptr != 0)

	mov	edi, DWORD PTR [ecx]
	test	edi, edi
	je	SHORT $LN4@locale@2

; 376  : 			_DELETE_CRT(_Ptr->_Decref());

	push	0
	lea	ecx, DWORD PTR __Lock$19881[esp+12]
	call	??0_Lockit@std@@QAE@H@Z			; std::_Lockit::_Lockit
	mov	eax, DWORD PTR [edi+4]
	test	eax, eax
	jbe	SHORT $LN6@locale@2
	cmp	eax, -1
	jae	SHORT $LN6@locale@2
	add	eax, -1
	mov	DWORD PTR [edi+4], eax
$LN6@locale@2:
	push	esi
	mov	esi, DWORD PTR [edi+4]
	neg	esi
	sbb	esi, esi
	not	esi
	lea	ecx, DWORD PTR __Lock$19881[esp+12]
	and	esi, edi
	call	??1_Lockit@std@@QAE@XZ			; std::_Lockit::~_Lockit
	test	esi, esi
	je	SHORT $LN9@locale@2
	mov	eax, DWORD PTR [esi]
	mov	edx, DWORD PTR [eax]
	push	1
	mov	ecx, esi
	call	edx
$LN9@locale@2:
	pop	esi
$LN4@locale@2:
	pop	edi

; 377  : 		}

	pop	ecx
	ret	0
??1locale@std@@QAE@XZ ENDP				; std::locale::~locale
_TEXT	ENDS
PUBLIC	?_Getfacet@locale@std@@QBEPBVfacet@12@I@Z	; std::locale::_Getfacet
EXTRN	?_Getgloballocale@locale@std@@CAPAV_Locimp@12@XZ:PROC ; std::locale::_Getgloballocale
; Function compile flags: /Ogtpy
;	COMDAT ?_Getfacet@locale@std@@QBEPBVfacet@12@I@Z
_TEXT	SEGMENT
__Id$ = 8						; size = 4
?_Getfacet@locale@std@@QBEPBVfacet@12@I@Z PROC		; std::locale::_Getfacet, COMDAT
; _this$ = ecx

; 397  : 		const facet *_Facptr = _Id < _Ptr->_Facetcount
; 398  : 			? _Ptr->_Facetvec[_Id] : 0;	// null if id off end

	mov	ecx, DWORD PTR [ecx]
	push	esi
	mov	esi, DWORD PTR __Id$[esp]
	cmp	esi, DWORD PTR [ecx+12]
	jae	SHORT $LN6@Getfacet
	mov	eax, DWORD PTR [ecx+8]
	mov	eax, DWORD PTR [eax+esi*4]

; 399  : 		if (_Facptr != 0 || !_Ptr->_Xparent)

	test	eax, eax
	jne	SHORT $LN1@Getfacet
$LN10@Getfacet:
	cmp	BYTE PTR [ecx+20], 0
	je	SHORT $LN1@Getfacet

; 400  : 			return (_Facptr);	// found facet or not transparent, return pointer
; 401  : 		else
; 402  : 			{	// look in current locale
; 403  : 			locale::_Locimp *_Ptr = _Getgloballocale();

	call	?_Getgloballocale@locale@std@@CAPAV_Locimp@12@XZ ; std::locale::_Getgloballocale

; 404  : 			return (_Id < _Ptr->_Facetcount
; 405  : 				? _Ptr->_Facetvec[_Id]	// get from current locale
; 406  : 				: 0);	// no entry in current locale

	cmp	esi, DWORD PTR [eax+12]
	jae	SHORT $LN8@Getfacet
	mov	ecx, DWORD PTR [eax+8]
	mov	eax, DWORD PTR [ecx+esi*4]
	pop	esi

; 407  : 			}
; 408  : 		}

	ret	4
$LN6@Getfacet:

; 397  : 		const facet *_Facptr = _Id < _Ptr->_Facetcount
; 398  : 			? _Ptr->_Facetvec[_Id] : 0;	// null if id off end

	xor	eax, eax

; 399  : 		if (_Facptr != 0 || !_Ptr->_Xparent)

	jmp	SHORT $LN10@Getfacet
$LN8@Getfacet:

; 404  : 			return (_Id < _Ptr->_Facetcount
; 405  : 				? _Ptr->_Facetvec[_Id]	// get from current locale
; 406  : 				: 0);	// no entry in current locale

	xor	eax, eax
$LN1@Getfacet:
	pop	esi

; 407  : 			}
; 408  : 		}

	ret	4
?_Getfacet@locale@std@@QBEPBVfacet@12@I@Z ENDP		; std::locale::_Getfacet
; Function compile flags: /Ogtpy
_TEXT	ENDS
;	COMDAT ??_Gfacet@locale@std@@UAEPAXI@Z
_TEXT	SEGMENT
___flags$ = 8						; size = 4
??_Gfacet@locale@std@@UAEPAXI@Z PROC			; std::locale::facet::`scalar deleting destructor', COMDAT
; _this$ = ecx
	test	BYTE PTR ___flags$[esp-4], 1
	push	esi
	mov	esi, ecx
	mov	DWORD PTR [esi], OFFSET ??_7facet@locale@std@@6B@
	je	SHORT $LN6@scalar@2
	push	esi
	call	??3@YAXPAX@Z				; operator delete
	add	esp, 4
$LN6@scalar@2:
	mov	eax, esi
	pop	esi
	ret	4
??_Gfacet@locale@std@@UAEPAXI@Z ENDP			; std::locale::facet::`scalar deleting destructor'
_TEXT	ENDS
PUBLIC	??_7ctype_base@std@@6B@				; std::ctype_base::`vftable'
PUBLIC	??0ctype_base@std@@QAE@I@Z			; std::ctype_base::ctype_base
PUBLIC	??_R4ctype_base@std@@6B@			; std::ctype_base::`RTTI Complete Object Locator'
PUBLIC	??_R0?AUctype_base@std@@@8			; std::ctype_base `RTTI Type Descriptor'
PUBLIC	??_R3ctype_base@std@@8				; std::ctype_base::`RTTI Class Hierarchy Descriptor'
PUBLIC	??_R2ctype_base@std@@8				; std::ctype_base::`RTTI Base Class Array'
PUBLIC	??_R1A@?0A@EA@ctype_base@std@@8			; std::ctype_base::`RTTI Base Class Descriptor at (0,-1,0,64)'
EXTRN	??_Ectype_base@std@@UAEPAXI@Z:PROC		; std::ctype_base::`vector deleting destructor'
;	COMDAT ??_R1A@?0A@EA@ctype_base@std@@8
rdata$r	SEGMENT
??_R1A@?0A@EA@ctype_base@std@@8 DD FLAT:??_R0?AUctype_base@std@@@8 ; std::ctype_base::`RTTI Base Class Descriptor at (0,-1,0,64)'
	DD	01H
	DD	00H
	DD	0ffffffffH
	DD	00H
	DD	040H
	DD	FLAT:??_R3ctype_base@std@@8
rdata$r	ENDS
;	COMDAT ??_R2ctype_base@std@@8
rdata$r	SEGMENT
??_R2ctype_base@std@@8 DD FLAT:??_R1A@?0A@EA@ctype_base@std@@8 ; std::ctype_base::`RTTI Base Class Array'
	DD	FLAT:??_R1A@?0A@EA@facet@locale@std@@8
rdata$r	ENDS
;	COMDAT ??_R3ctype_base@std@@8
rdata$r	SEGMENT
??_R3ctype_base@std@@8 DD 00H				; std::ctype_base::`RTTI Class Hierarchy Descriptor'
	DD	00H
	DD	02H
	DD	FLAT:??_R2ctype_base@std@@8
rdata$r	ENDS
;	COMDAT ??_R0?AUctype_base@std@@@8
_DATA	SEGMENT
??_R0?AUctype_base@std@@@8 DD FLAT:??_7type_info@@6B@	; std::ctype_base `RTTI Type Descriptor'
	DD	00H
	DB	'.?AUctype_base@std@@', 00H
_DATA	ENDS
;	COMDAT ??_R4ctype_base@std@@6B@
rdata$r	SEGMENT
??_R4ctype_base@std@@6B@ DD 00H				; std::ctype_base::`RTTI Complete Object Locator'
	DD	00H
	DD	00H
	DD	FLAT:??_R0?AUctype_base@std@@@8
	DD	FLAT:??_R3ctype_base@std@@8
rdata$r	ENDS
;	COMDAT ??_7ctype_base@std@@6B@
CONST	SEGMENT
??_7ctype_base@std@@6B@ DD FLAT:??_R4ctype_base@std@@6B@ ; std::ctype_base::`vftable'
	DD	FLAT:??_Ectype_base@std@@UAEPAXI@Z
; Function compile flags: /Ogtpy
CONST	ENDS
;	COMDAT ??0ctype_base@std@@QAE@I@Z
_TEXT	SEGMENT
__Refs$ = 8						; size = 4
??0ctype_base@std@@QAE@I@Z PROC				; std::ctype_base::ctype_base, COMDAT
; _this$ = ecx

; 1330 : 		{	// default constructor

	mov	eax, ecx
	mov	ecx, DWORD PTR __Refs$[esp-4]
	mov	DWORD PTR [eax+4], ecx
	mov	DWORD PTR [eax], OFFSET ??_7ctype_base@std@@6B@

; 1331 : 		}

	ret	4
??0ctype_base@std@@QAE@I@Z ENDP				; std::ctype_base::ctype_base
_TEXT	ENDS
PUBLIC	??1ctype_base@std@@UAE@XZ			; std::ctype_base::~ctype_base
; Function compile flags: /Ogtpy
;	COMDAT ??1ctype_base@std@@UAE@XZ
_TEXT	SEGMENT
??1ctype_base@std@@UAE@XZ PROC				; std::ctype_base::~ctype_base, COMDAT
; _this$ = ecx

; 1335 : 		}

	mov	DWORD PTR [ecx], OFFSET ??_7facet@locale@std@@6B@
	ret	0
??1ctype_base@std@@UAE@XZ ENDP				; std::ctype_base::~ctype_base
; Function compile flags: /Ogtpy
_TEXT	ENDS
;	COMDAT ??_Gctype_base@std@@UAEPAXI@Z
_TEXT	SEGMENT
___flags$ = 8						; size = 4
??_Gctype_base@std@@UAEPAXI@Z PROC			; std::ctype_base::`scalar deleting destructor', COMDAT
; _this$ = ecx
	test	BYTE PTR ___flags$[esp-4], 1
	push	esi
	mov	esi, ecx
	mov	DWORD PTR [esi], OFFSET ??_7facet@locale@std@@6B@
	je	SHORT $LN8@scalar@3
	push	esi
	call	??3@YAXPAX@Z				; operator delete
	add	esp, 4
$LN8@scalar@3:
	mov	eax, esi
	pop	esi
	ret	4
??_Gctype_base@std@@UAEPAXI@Z ENDP			; std::ctype_base::`scalar deleting destructor'
_TEXT	ENDS
PUBLIC	?is@?$ctype@D@std@@QBE_NFD@Z			; std::ctype<char>::is
; Function compile flags: /Ogtpy
;	COMDAT ?is@?$ctype@D@std@@QBE_NFD@Z
_TEXT	SEGMENT
__Maskval$ = 8						; size = 2
__Ch$ = 12						; size = 1
?is@?$ctype@D@std@@QBE_NFD@Z PROC			; std::ctype<char>::is, COMDAT
; _this$ = ecx

; 1632 : 		return ((_Ctype._Table[(unsigned char)_Ch] & _Maskval) != 0);

	movzx	eax, BYTE PTR __Ch$[esp-4]
	mov	ecx, DWORD PTR [ecx+16]
	mov	ax, WORD PTR [ecx+eax*2]
	and	ax, WORD PTR __Maskval$[esp-4]
	neg	ax
	sbb	eax, eax
	neg	eax

; 1633 : 		}

	ret	8
?is@?$ctype@D@std@@QBE_NFD@Z ENDP			; std::ctype<char>::is
_TEXT	ENDS
PUBLIC	?_Init@?$ctype@D@std@@IAEXABV_Locinfo@2@@Z	; std::ctype<char>::_Init
; Function compile flags: /Ogtpy
;	COMDAT ?_Init@?$ctype@D@std@@IAEXABV_Locinfo@2@@Z
_TEXT	SEGMENT
$T19931 = -16						; size = 16
__Lobj$ = 8						; size = 4
?_Init@?$ctype@D@std@@IAEXABV_Locinfo@2@@Z PROC		; std::ctype<char>::_Init, COMDAT
; _this$ = ecx

; 1774 : 		{	// initialize from _Lobj

	sub	esp, 16					; 00000010H
	push	esi

; 1775 : 		_Ctype = _Lobj._Getctype();

	lea	eax, DWORD PTR $T19931[esp+20]
	push	eax
	mov	esi, ecx
	call	__Getctype
	mov	ecx, DWORD PTR [eax]
	mov	DWORD PTR [esi+8], ecx
	mov	edx, DWORD PTR [eax+4]
	mov	DWORD PTR [esi+12], edx
	mov	ecx, DWORD PTR [eax+8]
	mov	DWORD PTR [esi+16], ecx
	mov	edx, DWORD PTR [eax+12]
	add	esp, 4
	mov	DWORD PTR [esi+20], edx
	pop	esi

; 1776 : 		}

	add	esp, 16					; 00000010H
	ret	4
?_Init@?$ctype@D@std@@IAEXABV_Locinfo@2@@Z ENDP		; std::ctype<char>::_Init
_TEXT	ENDS
PUBLIC	?_Tidy@?$ctype@D@std@@IAEXXZ			; std::ctype<char>::_Tidy
EXTRN	??_V@YAXPAX@Z:PROC				; operator delete[]
EXTRN	_free:PROC
; Function compile flags: /Ogtpy
;	COMDAT ?_Tidy@?$ctype@D@std@@IAEXXZ
_TEXT	SEGMENT
?_Tidy@?$ctype@D@std@@IAEXXZ PROC			; std::ctype<char>::_Tidy, COMDAT
; _this$ = ecx

; 1780 : 		if (0 < _Ctype._Delfl)

	mov	eax, DWORD PTR [ecx+20]
	test	eax, eax
	jle	SHORT $LN6@Tidy

; 1781 : 			free((void *)_Ctype._Table);

	mov	eax, DWORD PTR [ecx+16]
	push	eax
	call	_free
	add	esp, 4

; 1784 : 		}

	ret	0
$LN6@Tidy:

; 1782 : 		else if (_Ctype._Delfl < 0)

	jge	SHORT $LN1@Tidy

; 1783 : 			delete[] (void *)_Ctype._Table;

	mov	ecx, DWORD PTR [ecx+16]
	push	ecx
	call	??_V@YAXPAX@Z				; operator delete[]
	pop	ecx
$LN1@Tidy:

; 1784 : 		}

	ret	0
?_Tidy@?$ctype@D@std@@IAEXXZ ENDP			; std::ctype<char>::_Tidy
_TEXT	ENDS
PUBLIC	?rdstate@ios_base@std@@QBEHXZ			; std::ios_base::rdstate
; Function compile flags: /Ogtpy
; File c:\program files\microsoft visual studio 8\vc\include\xiosbase
;	COMDAT ?rdstate@ios_base@std@@QBEHXZ
_TEXT	SEGMENT
?rdstate@ios_base@std@@QBEHXZ PROC			; std::ios_base::rdstate, COMDAT
; _this$ = ecx

; 299  : 		return (_Mystate);

	mov	eax, DWORD PTR [ecx+8]

; 300  : 		}

	ret	0
?rdstate@ios_base@std@@QBEHXZ ENDP			; std::ios_base::rdstate
_TEXT	ENDS
PUBLIC	?good@ios_base@std@@QBE_NXZ			; std::ios_base::good
; Function compile flags: /Ogtpy
;	COMDAT ?good@ios_base@std@@QBE_NXZ
_TEXT	SEGMENT
?good@ios_base@std@@QBE_NXZ PROC			; std::ios_base::good, COMDAT
; _this$ = ecx

; 322  : 		return (rdstate() == goodbit);

	xor	eax, eax
	cmp	DWORD PTR [ecx+8], eax
	sete	al

; 323  : 		}

	ret	0
?good@ios_base@std@@QBE_NXZ ENDP			; std::ios_base::good
_TEXT	ENDS
PUBLIC	?fail@ios_base@std@@QBE_NXZ			; std::ios_base::fail
; Function compile flags: /Ogtpy
;	COMDAT ?fail@ios_base@std@@QBE_NXZ
_TEXT	SEGMENT
?fail@ios_base@std@@QBE_NXZ PROC			; std::ios_base::fail, COMDAT
; _this$ = ecx

; 332  : 		return (((int)rdstate()
; 333  : 			& ((int)badbit | (int)failbit)) != 0);

	mov	eax, DWORD PTR [ecx+8]
	and	al, 6
	neg	al
	sbb	eax, eax
	neg	eax

; 334  : 		}

	ret	0
?fail@ios_base@std@@QBE_NXZ ENDP			; std::ios_base::fail
_TEXT	ENDS
PUBLIC	?flags@ios_base@std@@QBEHXZ			; std::ios_base::flags
; Function compile flags: /Ogtpy
;	COMDAT ?flags@ios_base@std@@QBEHXZ
_TEXT	SEGMENT
?flags@ios_base@std@@QBEHXZ PROC			; std::ios_base::flags, COMDAT
; _this$ = ecx

; 362  : 		return (_Fmtfl);

	mov	eax, DWORD PTR [ecx+16]

; 363  : 		}

	ret	0
?flags@ios_base@std@@QBEHXZ ENDP			; std::ios_base::flags
_TEXT	ENDS
PUBLIC	?width@ios_base@std@@QBEHXZ			; std::ios_base::width
; Function compile flags: /Ogtpy
;	COMDAT ?width@ios_base@std@@QBEHXZ
_TEXT	SEGMENT
?width@ios_base@std@@QBEHXZ PROC			; std::ios_base::width, COMDAT
; _this$ = ecx

; 407  : 		return (_Wide);

	mov	eax, DWORD PTR [ecx+24]

; 408  : 		}

	ret	0
?width@ios_base@std@@QBEHXZ ENDP			; std::ios_base::width
_TEXT	ENDS
PUBLIC	?width@ios_base@std@@QAEHH@Z			; std::ios_base::width
; Function compile flags: /Ogtpy
;	COMDAT ?width@ios_base@std@@QAEHH@Z
_TEXT	SEGMENT
__Newwidth$ = 8						; size = 4
?width@ios_base@std@@QAEHH@Z PROC			; std::ios_base::width, COMDAT
; _this$ = ecx

; 412  : 		streamsize _Oldwidth = _Wide;
; 413  : 		_Wide = _Newwidth;

	mov	edx, DWORD PTR __Newwidth$[esp-4]
	mov	eax, DWORD PTR [ecx+24]
	mov	DWORD PTR [ecx+24], edx

; 414  : 		return (_Oldwidth);
; 415  : 		}

	ret	4
?width@ios_base@std@@QAEHH@Z ENDP			; std::ios_base::width
_TEXT	ENDS
PUBLIC	?getloc@ios_base@std@@QBE?AVlocale@2@XZ		; std::ios_base::getloc
; Function compile flags: /Ogtpy
;	COMDAT ?getloc@ios_base@std@@QBE?AVlocale@2@XZ
_TEXT	SEGMENT
$T19960 = -4						; size = 4
__Lock$19974 = 8					; size = 4
___$ReturnUdt$ = 8					; size = 4
?getloc@ios_base@std@@QBE?AVlocale@2@XZ PROC		; std::ios_base::getloc, COMDAT
; _this$ = ecx

; 418  : 		{	// get locale

	push	ecx

; 419  : 		return (*_Ploc);

	mov	eax, DWORD PTR [ecx+36]
	push	esi
	mov	esi, DWORD PTR [eax]
	push	edi
	mov	edi, DWORD PTR ___$ReturnUdt$[esp+8]
	push	0
	lea	ecx, DWORD PTR __Lock$19974[esp+12]
	mov	DWORD PTR $T19960[esp+16], 0
	mov	DWORD PTR [edi], esi
	call	??0_Lockit@std@@QAE@H@Z			; std::_Lockit::_Lockit
	mov	eax, DWORD PTR [esi+4]
	cmp	eax, -1
	jae	SHORT $LN7@getloc
	add	eax, 1
	mov	DWORD PTR [esi+4], eax
$LN7@getloc:
	lea	ecx, DWORD PTR __Lock$19974[esp+8]
	call	??1_Lockit@std@@QAE@XZ			; std::_Lockit::~_Lockit
	mov	eax, edi
	pop	edi
	pop	esi

; 420  : 		}

	pop	ecx
	ret	4
?getloc@ios_base@std@@QBE?AVlocale@2@XZ ENDP		; std::ios_base::getloc
_TEXT	ENDS
EXTRN	__time64:PROC
; Function compile flags: /Ogtpy
; File c:\program files\microsoft visual studio 8\vc\include\time.inl
;	COMDAT _time
_TEXT	SEGMENT
_time	PROC						; COMDAT
; __Time$ = eax

; 135  :     return _time64(_Time);

	push	eax
	call	__time64
	add	esp, 4

; 136  : }

	ret	0
_time	ENDP
_TEXT	ENDS
PUBLIC	?size@?$basic_string@DU?$char_traits@D@std@@V?$allocator@D@2@@std@@QBEIXZ ; std::basic_string<char,std::char_traits<char>,std::allocator<char> >::size
; Function compile flags: /Ogtpy
; File c:\program files\microsoft visual studio 8\vc\include\xstring
;	COMDAT ?size@?$basic_string@DU?$char_traits@D@std@@V?$allocator@D@2@@std@@QBEIXZ
_TEXT	SEGMENT
?size@?$basic_string@DU?$char_traits@D@std@@V?$allocator@D@2@@std@@QBEIXZ PROC ; std::basic_string<char,std::char_traits<char>,std::allocator<char> >::size, COMDAT
; _this$ = ecx

; 1599 : 		return (_Mysize);

	mov	eax, DWORD PTR [ecx+20]

; 1600 : 		}

	ret	0
?size@?$basic_string@DU?$char_traits@D@std@@V?$allocator@D@2@@std@@QBEIXZ ENDP ; std::basic_string<char,std::char_traits<char>,std::allocator<char> >::size
_TEXT	ENDS
PUBLIC	??6?$basic_ostream@DU?$char_traits@D@std@@@std@@QAEAAV01@P6AAAV01@AAV01@@Z@Z ; std::basic_ostream<char,std::char_traits<char> >::operator<<
; Function compile flags: /Ogtpy
; File c:\program files\microsoft visual studio 8\vc\include\ostream
;	COMDAT ??6?$basic_ostream@DU?$char_traits@D@std@@@std@@QAEAAV01@P6AAAV01@AAV01@@Z@Z
_TEXT	SEGMENT
__Pfn$ = 8						; size = 4
??6?$basic_ostream@DU?$char_traits@D@std@@@std@@QAEAAV01@P6AAAV01@AAV01@@Z@Z PROC ; std::basic_ostream<char,std::char_traits<char> >::operator<<, COMDAT
; _this$ = ecx

; 170  : 		_DEBUG_POINTER(_Pfn);
; 171  : 		return ((*_Pfn)(*this));

	push	ecx
	call	DWORD PTR __Pfn$[esp]
	add	esp, 4

; 172  : 		}

	ret	4
??6?$basic_ostream@DU?$char_traits@D@std@@@std@@QAEAAV01@P6AAAV01@AAV01@@Z@Z ENDP ; std::basic_ostream<char,std::char_traits<char> >::operator<<
_TEXT	ENDS
PUBLIC	?rdbuf@?$basic_ios@DU?$char_traits@D@std@@@std@@QBEPAV?$basic_streambuf@DU?$char_traits@D@std@@@2@XZ ; std::basic_ios<char,std::char_traits<char> >::rdbuf
; Function compile flags: /Ogtpy
; File c:\program files\microsoft visual studio 8\vc\include\ios
;	COMDAT ?rdbuf@?$basic_ios@DU?$char_traits@D@std@@@std@@QBEPAV?$basic_streambuf@DU?$char_traits@D@std@@@2@XZ
_TEXT	SEGMENT
?rdbuf@?$basic_ios@DU?$char_traits@D@std@@@std@@QBEPAV?$basic_streambuf@DU?$char_traits@D@std@@@2@XZ PROC ; std::basic_ios<char,std::char_traits<char> >::rdbuf, COMDAT
; _this$ = ecx

; 85   : 		return (_Mystrbuf);

	mov	eax, DWORD PTR [ecx+40]

; 86   : 		}

	ret	0
?rdbuf@?$basic_ios@DU?$char_traits@D@std@@@std@@QBEPAV?$basic_streambuf@DU?$char_traits@D@std@@@2@XZ ENDP ; std::basic_ios<char,std::char_traits<char> >::rdbuf
_TEXT	ENDS
PUBLIC	??Bsentry@?$basic_istream@DU?$char_traits@D@std@@@std@@QBE_NXZ ; std::basic_istream<char,std::char_traits<char> >::sentry::operator bool
; Function compile flags: /Ogtpy
; File c:\program files\microsoft visual studio 8\vc\include\istream
;	COMDAT ??Bsentry@?$basic_istream@DU?$char_traits@D@std@@@std@@QBE_NXZ
_TEXT	SEGMENT
??Bsentry@?$basic_istream@DU?$char_traits@D@std@@@std@@QBE_NXZ PROC ; std::basic_istream<char,std::char_traits<char> >::sentry::operator bool, COMDAT
; _this$ = ecx

; 81   : 			return (_Ok);

	mov	al, BYTE PTR [ecx+4]

; 82   : 			}

	ret	0
??Bsentry@?$basic_istream@DU?$char_traits@D@std@@@std@@QBE_NXZ ENDP ; std::basic_istream<char,std::char_traits<char> >::sentry::operator bool
_TEXT	ENDS
PUBLIC	?_Myptr@?$basic_string@DU?$char_traits@D@std@@V?$allocator@D@2@@std@@IBEPBDXZ ; std::basic_string<char,std::char_traits<char>,std::allocator<char> >::_Myptr
; Function compile flags: /Ogtpy
; File c:\program files\microsoft visual studio 8\vc\include\xstring
;	COMDAT ?_Myptr@?$basic_string@DU?$char_traits@D@std@@V?$allocator@D@2@@std@@IBEPBDXZ
_TEXT	SEGMENT
?_Myptr@?$basic_string@DU?$char_traits@D@std@@V?$allocator@D@2@@std@@IBEPBDXZ PROC ; std::basic_string<char,std::char_traits<char>,std::allocator<char> >::_Myptr, COMDAT
; _this$ = ecx

; 2055 : 		return (_BUF_SIZE <= _Myres ? _Bx._Ptr : _Bx._Buf);

	cmp	DWORD PTR [ecx+24], 16			; 00000010H
	jb	SHORT $LN3@Myptr
	mov	eax, DWORD PTR [ecx+4]

; 2056 : 		}

	ret	0
$LN3@Myptr:

; 2055 : 		return (_BUF_SIZE <= _Myres ? _Bx._Ptr : _Bx._Buf);

	lea	eax, DWORD PTR [ecx+4]

; 2056 : 		}

	ret	0
?_Myptr@?$basic_string@DU?$char_traits@D@std@@V?$allocator@D@2@@std@@IBEPBDXZ ENDP ; std::basic_string<char,std::char_traits<char>,std::allocator<char> >::_Myptr
_TEXT	ENDS
PUBLIC	??0?$allocator@D@std@@QAE@XZ			; std::allocator<char>::allocator<char>
; Function compile flags: /Ogtpy
; File c:\program files\microsoft visual studio 8\vc\include\xmemory
;	COMDAT ??0?$allocator@D@std@@QAE@XZ
_TEXT	SEGMENT
??0?$allocator@D@std@@QAE@XZ PROC			; std::allocator<char>::allocator<char>, COMDAT
; _this$ = ecx

; 120  : 	allocator() _THROW0()

	mov	eax, ecx

; 121  : 		{	// construct default allocator (do nothing)
; 122  : 		}

	ret	0
??0?$allocator@D@std@@QAE@XZ ENDP			; std::allocator<char>::allocator<char>
_TEXT	ENDS
PUBLIC	??0?$allocator@D@std@@QAE@ABV01@@Z		; std::allocator<char>::allocator<char>
; Function compile flags: /Ogtpy
;	COMDAT ??0?$allocator@D@std@@QAE@ABV01@@Z
_TEXT	SEGMENT
___formal$ = 8						; size = 4
??0?$allocator@D@std@@QAE@ABV01@@Z PROC			; std::allocator<char>::allocator<char>, COMDAT
; _this$ = ecx

; 124  : 	allocator(const allocator<_Ty>&) _THROW0()

	mov	eax, ecx

; 125  : 		{	// construct by copying (do nothing)
; 126  : 		}

	ret	4
??0?$allocator@D@std@@QAE@ABV01@@Z ENDP			; std::allocator<char>::allocator<char>
_TEXT	ENDS
PUBLIC	?fill@?$basic_ios@DU?$char_traits@D@std@@@std@@QBEDXZ ; std::basic_ios<char,std::char_traits<char> >::fill
; Function compile flags: /Ogtpy
; File c:\program files\microsoft visual studio 8\vc\include\ios
;	COMDAT ?fill@?$basic_ios@DU?$char_traits@D@std@@@std@@QBEDXZ
_TEXT	SEGMENT
?fill@?$basic_ios@DU?$char_traits@D@std@@@std@@QBEDXZ PROC ; std::basic_ios<char,std::char_traits<char> >::fill, COMDAT
; _this$ = ecx

; 106  : 		return (_Fillch);

	mov	al, BYTE PTR [ecx+48]

; 107  : 		}

	ret	0
?fill@?$basic_ios@DU?$char_traits@D@std@@@std@@QBEDXZ ENDP ; std::basic_ios<char,std::char_traits<char> >::fill
_TEXT	ENDS
PUBLIC	?pubsync@?$basic_streambuf@DU?$char_traits@D@std@@@std@@QAEHXZ ; std::basic_streambuf<char,std::char_traits<char> >::pubsync
; Function compile flags: /Ogtpy
; File c:\program files\microsoft visual studio 8\vc\include\streambuf
;	COMDAT ?pubsync@?$basic_streambuf@DU?$char_traits@D@std@@@std@@QAEHXZ
_TEXT	SEGMENT
?pubsync@?$basic_streambuf@DU?$char_traits@D@std@@@std@@QAEHXZ PROC ; std::basic_streambuf<char,std::char_traits<char> >::pubsync, COMDAT
; _this$ = ecx

; 101  : 		return (sync());

	mov	eax, DWORD PTR [ecx]
	mov	edx, DWORD PTR [eax+48]
	jmp	edx
?pubsync@?$basic_streambuf@DU?$char_traits@D@std@@@std@@QAEHXZ ENDP ; std::basic_streambuf<char,std::char_traits<char> >::pubsync
_TEXT	ENDS
PUBLIC	?_Unlock@?$basic_streambuf@DU?$char_traits@D@std@@@std@@QAEXXZ ; std::basic_streambuf<char,std::char_traits<char> >::_Unlock
EXTRN	?_Unlock@_Mutex@std@@QAEXXZ:PROC		; std::_Mutex::_Unlock
; Function compile flags: /Ogtpy
;	COMDAT ?_Unlock@?$basic_streambuf@DU?$char_traits@D@std@@@std@@QAEXXZ
_TEXT	SEGMENT
?_Unlock@?$basic_streambuf@DU?$char_traits@D@std@@@std@@QAEXXZ PROC ; std::basic_streambuf<char,std::char_traits<char> >::_Unlock, COMDAT
; _this$ = ecx

; 179  : 		_Mylock._Unlock();

	add	ecx, 4
	jmp	?_Unlock@_Mutex@std@@QAEXXZ		; std::_Mutex::_Unlock
?_Unlock@?$basic_streambuf@DU?$char_traits@D@std@@@std@@QAEXXZ ENDP ; std::basic_streambuf<char,std::char_traits<char> >::_Unlock
_TEXT	ENDS
PUBLIC	?gptr@?$basic_streambuf@DU?$char_traits@D@std@@@std@@IBEPADXZ ; std::basic_streambuf<char,std::char_traits<char> >::gptr
; Function compile flags: /Ogtpy
;	COMDAT ?gptr@?$basic_streambuf@DU?$char_traits@D@std@@@std@@IBEPADXZ
_TEXT	SEGMENT
?gptr@?$basic_streambuf@DU?$char_traits@D@std@@@std@@IBEPADXZ PROC ; std::basic_streambuf<char,std::char_traits<char> >::gptr, COMDAT
; _this$ = ecx

; 191  : 		return (*_IGnext);

	mov	eax, DWORD PTR [ecx+32]
	mov	eax, DWORD PTR [eax]

; 192  : 		}

	ret	0
?gptr@?$basic_streambuf@DU?$char_traits@D@std@@@std@@IBEPADXZ ENDP ; std::basic_streambuf<char,std::char_traits<char> >::gptr
_TEXT	ENDS
PUBLIC	?_Gninc@?$basic_streambuf@DU?$char_traits@D@std@@@std@@IAEPADXZ ; std::basic_streambuf<char,std::char_traits<char> >::_Gninc
; Function compile flags: /Ogtpy
;	COMDAT ?_Gninc@?$basic_streambuf@DU?$char_traits@D@std@@@std@@IAEPADXZ
_TEXT	SEGMENT
?_Gninc@?$basic_streambuf@DU?$char_traits@D@std@@@std@@IAEPADXZ PROC ; std::basic_streambuf<char,std::char_traits<char> >::_Gninc, COMDAT
; _this$ = ecx

; 235  : 		--*_IGcount;

	mov	eax, DWORD PTR [ecx+48]
	add	DWORD PTR [eax], -1

; 236  : 		return ((*_IGnext)++);

	mov	ecx, DWORD PTR [ecx+32]
	mov	eax, DWORD PTR [ecx]
	lea	edx, DWORD PTR [eax+1]
	mov	DWORD PTR [ecx], edx

; 237  : 		}

	ret	0
?_Gninc@?$basic_streambuf@DU?$char_traits@D@std@@@std@@IAEPADXZ ENDP ; std::basic_streambuf<char,std::char_traits<char> >::_Gninc
_TEXT	ENDS
PUBLIC	?_Gnpreinc@?$basic_streambuf@DU?$char_traits@D@std@@@std@@IAEPADXZ ; std::basic_streambuf<char,std::char_traits<char> >::_Gnpreinc
; Function compile flags: /Ogtpy
;	COMDAT ?_Gnpreinc@?$basic_streambuf@DU?$char_traits@D@std@@@std@@IAEPADXZ
_TEXT	SEGMENT
?_Gnpreinc@?$basic_streambuf@DU?$char_traits@D@std@@@std@@IAEPADXZ PROC ; std::basic_streambuf<char,std::char_traits<char> >::_Gnpreinc, COMDAT
; _this$ = ecx

; 241  : 		--*_IGcount;

	mov	eax, DWORD PTR [ecx+48]
	add	DWORD PTR [eax], -1

; 242  : 		return (++(*_IGnext));

	mov	eax, DWORD PTR [ecx+32]
	add	DWORD PTR [eax], 1
	mov	eax, DWORD PTR [ecx+32]
	mov	eax, DWORD PTR [eax]

; 243  : 		}

	ret	0
?_Gnpreinc@?$basic_streambuf@DU?$char_traits@D@std@@@std@@IAEPADXZ ENDP ; std::basic_streambuf<char,std::char_traits<char> >::_Gnpreinc
_TEXT	ENDS
PUBLIC	?_Gnavail@?$basic_streambuf@DU?$char_traits@D@std@@@std@@IBEHXZ ; std::basic_streambuf<char,std::char_traits<char> >::_Gnavail
; Function compile flags: /Ogtpy
;	COMDAT ?_Gnavail@?$basic_streambuf@DU?$char_traits@D@std@@@std@@IBEHXZ
_TEXT	SEGMENT
?_Gnavail@?$basic_streambuf@DU?$char_traits@D@std@@@std@@IBEHXZ PROC ; std::basic_streambuf<char,std::char_traits<char> >::_Gnavail, COMDAT
; _this$ = ecx

; 247  : 		return (*_IGnext != 0 ? *_IGcount : 0);

	mov	eax, DWORD PTR [ecx+32]
	cmp	DWORD PTR [eax], 0
	je	SHORT $LN3@Gnavail
	mov	ecx, DWORD PTR [ecx+48]
	mov	eax, DWORD PTR [ecx]

; 248  : 		}

	ret	0
$LN3@Gnavail:

; 247  : 		return (*_IGnext != 0 ? *_IGcount : 0);

	xor	eax, eax

; 248  : 		}

	ret	0
?_Gnavail@?$basic_streambuf@DU?$char_traits@D@std@@@std@@IBEHXZ ENDP ; std::basic_streambuf<char,std::char_traits<char> >::_Gnavail
_TEXT	ENDS
PUBLIC	?_Pnavail@?$basic_streambuf@DU?$char_traits@D@std@@@std@@IBEHXZ ; std::basic_streambuf<char,std::char_traits<char> >::_Pnavail
; Function compile flags: /Ogtpy
;	COMDAT ?_Pnavail@?$basic_streambuf@DU?$char_traits@D@std@@@std@@IBEHXZ
_TEXT	SEGMENT
?_Pnavail@?$basic_streambuf@DU?$char_traits@D@std@@@std@@IBEHXZ PROC ; std::basic_streambuf<char,std::char_traits<char> >::_Pnavail, COMDAT
; _this$ = ecx

; 278  : 		return (*_IPnext != 0 ? *_IPcount : 0);

	mov	eax, DWORD PTR [ecx+36]
	cmp	DWORD PTR [eax], 0
	je	SHORT $LN3@Pnavail
	mov	ecx, DWORD PTR [ecx+52]
	mov	eax, DWORD PTR [ecx]

; 279  : 		}

	ret	0
$LN3@Pnavail:

; 278  : 		return (*_IPnext != 0 ? *_IPcount : 0);

	xor	eax, eax

; 279  : 		}

	ret	0
?_Pnavail@?$basic_streambuf@DU?$char_traits@D@std@@@std@@IBEHXZ ENDP ; std::basic_streambuf<char,std::char_traits<char> >::_Pnavail
_TEXT	ENDS
PUBLIC	??Bsentry@?$basic_ostream@DU?$char_traits@D@std@@@std@@QBE_NXZ ; std::basic_ostream<char,std::char_traits<char> >::sentry::operator bool
; Function compile flags: /Ogtpy
; File c:\program files\microsoft visual studio 8\vc\include\ostream
;	COMDAT ??Bsentry@?$basic_ostream@DU?$char_traits@D@std@@@std@@QBE_NXZ
_TEXT	SEGMENT
??Bsentry@?$basic_ostream@DU?$char_traits@D@std@@@std@@QBE_NXZ PROC ; std::basic_ostream<char,std::char_traits<char> >::sentry::operator bool, COMDAT
; _this$ = ecx

; 114  : 			return (_Ok);

	mov	al, BYTE PTR [ecx+4]

; 115  : 			}

	ret	0
??Bsentry@?$basic_ostream@DU?$char_traits@D@std@@@std@@QBE_NXZ ENDP ; std::basic_ostream<char,std::char_traits<char> >::sentry::operator bool
_TEXT	ENDS
PUBLIC	?put@?$num_put@DV?$ostreambuf_iterator@DU?$char_traits@D@std@@@std@@@std@@QBE?AV?$ostreambuf_iterator@DU?$char_traits@D@std@@@2@V32@AAVios_base@2@D_N@Z ; std::num_put<char,std::ostreambuf_iterator<char,std::char_traits<char> > >::put
; Function compile flags: /Ogtpy
; File c:\program files\microsoft visual studio 8\vc\include\xlocnum
;	COMDAT ?put@?$num_put@DV?$ostreambuf_iterator@DU?$char_traits@D@std@@@std@@@std@@QBE?AV?$ostreambuf_iterator@DU?$char_traits@D@std@@@2@V32@AAVios_base@2@D_N@Z
_TEXT	SEGMENT
___$ReturnUdt$ = 8					; size = 4
__Dest$ = 12						; size = 12
__Iosbase$ = 24						; size = 4
__Fill$ = 28						; size = 1
__Val$ = 32						; size = 1
?put@?$num_put@DV?$ostreambuf_iterator@DU?$char_traits@D@std@@@std@@@std@@QBE?AV?$ostreambuf_iterator@DU?$char_traits@D@std@@@2@V32@AAVios_base@2@D_N@Z PROC ; std::num_put<char,std::ostreambuf_iterator<char,std::char_traits<char> > >::put, COMDAT
; _this$ = ecx

; 880  : 		return (do_put(_Dest, _Iosbase, _Fill, _Val));

	mov	eax, DWORD PTR __Val$[esp-4]
	mov	edx, DWORD PTR [ecx]
	push	esi
	mov	esi, DWORD PTR __Dest$[esp]
	mov	edx, DWORD PTR [edx+32]
	push	eax
	mov	eax, DWORD PTR __Fill$[esp+4]
	push	eax
	mov	eax, DWORD PTR __Iosbase$[esp+8]
	push	eax
	sub	esp, 12					; 0000000cH
	mov	eax, esp
	mov	DWORD PTR [eax], esi
	mov	esi, DWORD PTR __Dest$[esp+28]
	mov	DWORD PTR [eax+4], esi
	mov	esi, DWORD PTR __Dest$[esp+32]
	mov	DWORD PTR [eax+8], esi
	mov	esi, DWORD PTR ___$ReturnUdt$[esp+24]
	push	esi
	call	edx
	mov	eax, esi

; 881  : 		}

	pop	esi
	ret	28					; 0000001cH
?put@?$num_put@DV?$ostreambuf_iterator@DU?$char_traits@D@std@@@std@@@std@@QBE?AV?$ostreambuf_iterator@DU?$char_traits@D@std@@@2@V32@AAVios_base@2@D_N@Z ENDP ; std::num_put<char,std::ostreambuf_iterator<char,std::char_traits<char> > >::put
_TEXT	ENDS
PUBLIC	?put@?$num_put@DV?$ostreambuf_iterator@DU?$char_traits@D@std@@@std@@@std@@QBE?AV?$ostreambuf_iterator@DU?$char_traits@D@std@@@2@V32@AAVios_base@2@DJ@Z ; std::num_put<char,std::ostreambuf_iterator<char,std::char_traits<char> > >::put
; Function compile flags: /Ogtpy
;	COMDAT ?put@?$num_put@DV?$ostreambuf_iterator@DU?$char_traits@D@std@@@std@@@std@@QBE?AV?$ostreambuf_iterator@DU?$char_traits@D@std@@@2@V32@AAVios_base@2@DJ@Z
_TEXT	SEGMENT
___$ReturnUdt$ = 8					; size = 4
__Dest$ = 12						; size = 12
__Iosbase$ = 24						; size = 4
__Fill$ = 28						; size = 1
__Val$ = 32						; size = 4
?put@?$num_put@DV?$ostreambuf_iterator@DU?$char_traits@D@std@@@std@@@std@@QBE?AV?$ostreambuf_iterator@DU?$char_traits@D@std@@@2@V32@AAVios_base@2@DJ@Z PROC ; std::num_put<char,std::ostreambuf_iterator<char,std::char_traits<char> > >::put, COMDAT
; _this$ = ecx

; 886  : 		return (do_put(_Dest, _Iosbase, _Fill, _Val));

	mov	eax, DWORD PTR __Val$[esp-4]
	mov	edx, DWORD PTR [ecx]
	push	esi
	mov	esi, DWORD PTR __Dest$[esp]
	mov	edx, DWORD PTR [edx+28]
	push	eax
	mov	eax, DWORD PTR __Fill$[esp+4]
	push	eax
	mov	eax, DWORD PTR __Iosbase$[esp+8]
	push	eax
	sub	esp, 12					; 0000000cH
	mov	eax, esp
	mov	DWORD PTR [eax], esi
	mov	esi, DWORD PTR __Dest$[esp+28]
	mov	DWORD PTR [eax+4], esi
	mov	esi, DWORD PTR __Dest$[esp+32]
	mov	DWORD PTR [eax+8], esi
	mov	esi, DWORD PTR ___$ReturnUdt$[esp+24]
	push	esi
	call	edx
	mov	eax, esi

; 887  : 		}

	pop	esi
	ret	28					; 0000001cH
?put@?$num_put@DV?$ostreambuf_iterator@DU?$char_traits@D@std@@@std@@@std@@QBE?AV?$ostreambuf_iterator@DU?$char_traits@D@std@@@2@V32@AAVios_base@2@DJ@Z ENDP ; std::num_put<char,std::ostreambuf_iterator<char,std::char_traits<char> > >::put
_TEXT	ENDS
PUBLIC	?failed@?$ostreambuf_iterator@DU?$char_traits@D@std@@@std@@QBE_NXZ ; std::ostreambuf_iterator<char,std::char_traits<char> >::failed
; Function compile flags: /Ogtpy
; File c:\program files\microsoft visual studio 8\vc\include\xutility
;	COMDAT ?failed@?$ostreambuf_iterator@DU?$char_traits@D@std@@@std@@QBE_NXZ
_TEXT	SEGMENT
?failed@?$ostreambuf_iterator@DU?$char_traits@D@std@@@std@@QBE_NXZ PROC ; std::ostreambuf_iterator<char,std::char_traits<char> >::failed, COMDAT
; _this$ = ecx

; 2210 : 		return (_Failed);

	mov	al, BYTE PTR [ecx+4]

; 2211 : 		}

	ret	0
?failed@?$ostreambuf_iterator@DU?$char_traits@D@std@@@std@@QBE_NXZ ENDP ; std::ostreambuf_iterator<char,std::char_traits<char> >::failed
_TEXT	ENDS
PUBLIC	?get@?$num_get@DV?$istreambuf_iterator@DU?$char_traits@D@std@@@std@@@std@@QBE?AV?$istreambuf_iterator@DU?$char_traits@D@std@@@2@V32@0AAVios_base@2@AAHAAJ@Z ; std::num_get<char,std::istreambuf_iterator<char,std::char_traits<char> > >::get
; Function compile flags: /Ogtpy
; File c:\program files\microsoft visual studio 8\vc\include\xlocnum
;	COMDAT ?get@?$num_get@DV?$istreambuf_iterator@DU?$char_traits@D@std@@@std@@@std@@QBE?AV?$istreambuf_iterator@DU?$char_traits@D@std@@@2@V32@0AAVios_base@2@AAHAAJ@Z
_TEXT	SEGMENT
___$ReturnUdt$ = 8					; size = 4
__First$ = 12						; size = 12
__Last$ = 24						; size = 12
__Iosbase$ = 36						; size = 4
__State$ = 40						; size = 4
__Val$ = 44						; size = 4
?get@?$num_get@DV?$istreambuf_iterator@DU?$char_traits@D@std@@@std@@@std@@QBE?AV?$istreambuf_iterator@DU?$char_traits@D@std@@@2@V32@0AAVios_base@2@AAHAAJ@Z PROC ; std::num_get<char,std::istreambuf_iterator<char,std::char_traits<char> > >::get, COMDAT
; _this$ = ecx

; 284  : 		return (do_get(_First, _Last, _Iosbase, _State, _Val));

	mov	eax, DWORD PTR __Val$[esp-4]
	push	esi
	mov	esi, DWORD PTR __Last$[esp]
	push	eax
	mov	eax, DWORD PTR __State$[esp+4]
	mov	edx, DWORD PTR [ecx]
	push	eax
	mov	eax, DWORD PTR __Iosbase$[esp+8]
	mov	edx, DWORD PTR [edx+32]
	push	eax
	sub	esp, 12					; 0000000cH
	mov	eax, esp
	mov	DWORD PTR [eax], esi
	mov	esi, DWORD PTR __Last$[esp+28]
	mov	DWORD PTR [eax+4], esi
	mov	esi, DWORD PTR __Last$[esp+32]
	mov	DWORD PTR [eax+8], esi
	mov	esi, DWORD PTR __First$[esp+24]
	sub	esp, 12					; 0000000cH
	mov	eax, esp
	mov	DWORD PTR [eax], esi
	mov	esi, DWORD PTR __First$[esp+40]
	mov	DWORD PTR [eax+4], esi
	mov	esi, DWORD PTR __First$[esp+44]
	mov	DWORD PTR [eax+8], esi
	mov	esi, DWORD PTR ___$ReturnUdt$[esp+36]
	push	esi
	call	edx
	mov	eax, esi

; 285  : 		}

	pop	esi
	ret	40					; 00000028H
?get@?$num_get@DV?$istreambuf_iterator@DU?$char_traits@D@std@@@std@@@std@@QBE?AV?$istreambuf_iterator@DU?$char_traits@D@std@@@2@V32@0AAVios_base@2@AAHAAJ@Z ENDP ; std::num_get<char,std::istreambuf_iterator<char,std::char_traits<char> > >::get
_TEXT	ENDS
PUBLIC	??0?$_Iterator_with_base@Uinput_iterator_tag@std@@DJPADAADU_Iterator_base@2@@std@@QAE@XZ ; std::_Iterator_with_base<std::input_iterator_tag,char,long,char *,char &,std::_Iterator_base>::_Iterator_with_base<std::input_iterator_tag,char,long,char *,char &,std::_Iterator_base>
; Function compile flags: /Ogtpy
;	COMDAT ??0?$_Iterator_with_base@Uinput_iterator_tag@std@@DJPADAADU_Iterator_base@2@@std@@QAE@XZ
_TEXT	SEGMENT
??0?$_Iterator_with_base@Uinput_iterator_tag@std@@DJPADAADU_Iterator_base@2@@std@@QAE@XZ PROC ; std::_Iterator_with_base<std::input_iterator_tag,char,long,char *,char &,std::_Iterator_base>::_Iterator_with_base<std::input_iterator_tag,char,long,char *,char &,std::_Iterator_base>, COMDAT
; _this$ = ecx
	mov	eax, ecx
	mov	DWORD PTR [eax], 0
	ret	0
??0?$_Iterator_with_base@Uinput_iterator_tag@std@@DJPADAADU_Iterator_base@2@@std@@QAE@XZ ENDP ; std::_Iterator_with_base<std::input_iterator_tag,char,long,char *,char &,std::_Iterator_base>::_Iterator_with_base<std::input_iterator_tag,char,long,char *,char &,std::_Iterator_base>
_TEXT	ENDS
PUBLIC	??0?$_Iterator_with_base@Uoutput_iterator_tag@std@@XXXXU_Iterator_base@2@@std@@QAE@XZ ; std::_Iterator_with_base<std::output_iterator_tag,void,void,void,void,std::_Iterator_base>::_Iterator_with_base<std::output_iterator_tag,void,void,void,void,std::_Iterator_base>
; Function compile flags: /Ogtpy
;	COMDAT ??0?$_Iterator_with_base@Uoutput_iterator_tag@std@@XXXXU_Iterator_base@2@@std@@QAE@XZ
_TEXT	SEGMENT
??0?$_Iterator_with_base@Uoutput_iterator_tag@std@@XXXXU_Iterator_base@2@@std@@QAE@XZ PROC ; std::_Iterator_with_base<std::output_iterator_tag,void,void,void,void,std::_Iterator_base>::_Iterator_with_base<std::output_iterator_tag,void,void,void,void,std::_Iterator_base>, COMDAT
; _this$ = ecx
	mov	eax, ecx
	mov	DWORD PTR [eax], 0
	ret	0
??0?$_Iterator_with_base@Uoutput_iterator_tag@std@@XXXXU_Iterator_base@2@@std@@QAE@XZ ENDP ; std::_Iterator_with_base<std::output_iterator_tag,void,void,void,void,std::_Iterator_base>::_Iterator_with_base<std::output_iterator_tag,void,void,void,void,std::_Iterator_base>
_TEXT	ENDS
PUBLIC	?_Myptr@?$basic_string@DU?$char_traits@D@std@@V?$allocator@D@2@@std@@IAEPADXZ ; std::basic_string<char,std::char_traits<char>,std::allocator<char> >::_Myptr
; Function compile flags: /Ogtpy
; File c:\program files\microsoft visual studio 8\vc\include\xstring
;	COMDAT ?_Myptr@?$basic_string@DU?$char_traits@D@std@@V?$allocator@D@2@@std@@IAEPADXZ
_TEXT	SEGMENT
?_Myptr@?$basic_string@DU?$char_traits@D@std@@V?$allocator@D@2@@std@@IAEPADXZ PROC ; std::basic_string<char,std::char_traits<char>,std::allocator<char> >::_Myptr, COMDAT
; _this$ = ecx

; 2050 : 		return (_BUF_SIZE <= _Myres ? _Bx._Ptr : _Bx._Buf);

	cmp	DWORD PTR [ecx+24], 16			; 00000010H
	jb	SHORT $LN3@Myptr@2
	mov	eax, DWORD PTR [ecx+4]

; 2051 : 		}

	ret	0
$LN3@Myptr@2:

; 2050 : 		return (_BUF_SIZE <= _Myres ? _Bx._Ptr : _Bx._Buf);

	lea	eax, DWORD PTR [ecx+4]

; 2051 : 		}

	ret	0
?_Myptr@?$basic_string@DU?$char_traits@D@std@@V?$allocator@D@2@@std@@IAEPADXZ ENDP ; std::basic_string<char,std::char_traits<char>,std::allocator<char> >::_Myptr
_TEXT	ENDS
PUBLIC	?deallocate@?$allocator@D@std@@QAEXPADI@Z	; std::allocator<char>::deallocate
; Function compile flags: /Ogtpy
; File c:\program files\microsoft visual studio 8\vc\include\xmemory
;	COMDAT ?deallocate@?$allocator@D@std@@QAEXPADI@Z
_TEXT	SEGMENT
__Ptr$ = 8						; size = 4
___formal$ = 12						; size = 4
?deallocate@?$allocator@D@std@@QAEXPADI@Z PROC		; std::allocator<char>::deallocate, COMDAT
; _this$ = ecx

; 141  : 		::operator delete(_Ptr);

	mov	eax, DWORD PTR __Ptr$[esp-4]
	push	eax
	call	??3@YAXPAX@Z				; operator delete
	pop	ecx

; 142  : 		}

	ret	8
?deallocate@?$allocator@D@std@@QAEXPADI@Z ENDP		; std::allocator<char>::deallocate
_TEXT	ENDS
PUBLIC	?tie@?$basic_ios@DU?$char_traits@D@std@@@std@@QBEPAV?$basic_ostream@DU?$char_traits@D@std@@@2@XZ ; std::basic_ios<char,std::char_traits<char> >::tie
; Function compile flags: /Ogtpy
; File c:\program files\microsoft visual studio 8\vc\include\ios
;	COMDAT ?tie@?$basic_ios@DU?$char_traits@D@std@@@std@@QBEPAV?$basic_ostream@DU?$char_traits@D@std@@@2@XZ
_TEXT	SEGMENT
?tie@?$basic_ios@DU?$char_traits@D@std@@@std@@QBEPAV?$basic_ostream@DU?$char_traits@D@std@@@2@XZ PROC ; std::basic_ios<char,std::char_traits<char> >::tie, COMDAT
; _this$ = ecx

; 73   : 		return (_Tiestr);

	mov	eax, DWORD PTR [ecx+44]

; 74   : 		}

	ret	0
?tie@?$basic_ios@DU?$char_traits@D@std@@@std@@QBEPAV?$basic_ostream@DU?$char_traits@D@std@@@2@XZ ENDP ; std::basic_ios<char,std::char_traits<char> >::tie
_TEXT	ENDS
PUBLIC	?_Lock@?$basic_streambuf@DU?$char_traits@D@std@@@std@@QAEXXZ ; std::basic_streambuf<char,std::char_traits<char> >::_Lock
EXTRN	?_Lock@_Mutex@std@@QAEXXZ:PROC			; std::_Mutex::_Lock
; Function compile flags: /Ogtpy
; File c:\program files\microsoft visual studio 8\vc\include\streambuf
;	COMDAT ?_Lock@?$basic_streambuf@DU?$char_traits@D@std@@@std@@QAEXXZ
_TEXT	SEGMENT
?_Lock@?$basic_streambuf@DU?$char_traits@D@std@@@std@@QAEXXZ PROC ; std::basic_streambuf<char,std::char_traits<char> >::_Lock, COMDAT
; _this$ = ecx

; 174  : 		_Mylock._Lock();

	add	ecx, 4
	jmp	?_Lock@_Mutex@std@@QAEXXZ		; std::_Mutex::_Lock
?_Lock@?$basic_streambuf@DU?$char_traits@D@std@@@std@@QAEXXZ ENDP ; std::basic_streambuf<char,std::char_traits<char> >::_Lock
_TEXT	ENDS
PUBLIC	?_Pninc@?$basic_streambuf@DU?$char_traits@D@std@@@std@@IAEPADXZ ; std::basic_streambuf<char,std::char_traits<char> >::_Pninc
; Function compile flags: /Ogtpy
;	COMDAT ?_Pninc@?$basic_streambuf@DU?$char_traits@D@std@@@std@@IAEPADXZ
_TEXT	SEGMENT
?_Pninc@?$basic_streambuf@DU?$char_traits@D@std@@@std@@IAEPADXZ PROC ; std::basic_streambuf<char,std::char_traits<char> >::_Pninc, COMDAT
; _this$ = ecx

; 272  : 		--*_IPcount;

	mov	eax, DWORD PTR [ecx+52]
	add	DWORD PTR [eax], -1

; 273  : 		return ((*_IPnext)++);

	mov	ecx, DWORD PTR [ecx+36]
	mov	eax, DWORD PTR [ecx]
	lea	edx, DWORD PTR [eax+1]
	mov	DWORD PTR [ecx], edx

; 274  : 		}

	ret	0
?_Pninc@?$basic_streambuf@DU?$char_traits@D@std@@@std@@IAEPADXZ ENDP ; std::basic_streambuf<char,std::char_traits<char> >::_Pninc
_TEXT	ENDS
PUBLIC	??0_Sentry_base@?$basic_ostream@DU?$char_traits@D@std@@@std@@QAE@AAV12@@Z ; std::basic_ostream<char,std::char_traits<char> >::_Sentry_base::_Sentry_base
; Function compile flags: /Ogtpy
; File c:\program files\microsoft visual studio 8\vc\include\ostream
;	COMDAT ??0_Sentry_base@?$basic_ostream@DU?$char_traits@D@std@@@std@@QAE@AAV12@@Z
_TEXT	SEGMENT
__Ostr$ = 8						; size = 4
??0_Sentry_base@?$basic_ostream@DU?$char_traits@D@std@@@std@@QAE@AAV12@@Z PROC ; std::basic_ostream<char,std::char_traits<char> >::_Sentry_base::_Sentry_base, COMDAT
; _this$ = ecx

; 73   : 			{	// lock the stream buffer, if there

	mov	eax, DWORD PTR __Ostr$[esp-4]
	push	esi
	mov	esi, ecx
	mov	DWORD PTR [esi], eax

; 74   : 			if (_Myostr.rdbuf() != 0)

	mov	ecx, DWORD PTR [eax]
	mov	edx, DWORD PTR [ecx+4]
	mov	eax, DWORD PTR [edx+eax+40]
	test	eax, eax
	je	SHORT $LN10@Sentry_bas

; 75   : 				_Myostr.rdbuf()->_Lock();

	lea	ecx, DWORD PTR [eax+4]
	call	?_Lock@_Mutex@std@@QAEXXZ		; std::_Mutex::_Lock
$LN10@Sentry_bas:

; 76   : 			}

	mov	eax, esi
	pop	esi
	ret	4
??0_Sentry_base@?$basic_ostream@DU?$char_traits@D@std@@@std@@QAE@AAV12@@Z ENDP ; std::basic_ostream<char,std::char_traits<char> >::_Sentry_base::_Sentry_base
_TEXT	ENDS
PUBLIC	??1_Sentry_base@?$basic_ostream@DU?$char_traits@D@std@@@std@@QAE@XZ ; std::basic_ostream<char,std::char_traits<char> >::_Sentry_base::~_Sentry_base
; Function compile flags: /Ogtpy
;	COMDAT ??1_Sentry_base@?$basic_ostream@DU?$char_traits@D@std@@@std@@QAE@XZ
_TEXT	SEGMENT
??1_Sentry_base@?$basic_ostream@DU?$char_traits@D@std@@@std@@QAE@XZ PROC ; std::basic_ostream<char,std::char_traits<char> >::_Sentry_base::~_Sentry_base, COMDAT
; _this$ = ecx

; 80   : 			if (_Myostr.rdbuf() != 0)

	mov	eax, DWORD PTR [ecx]
	mov	ecx, DWORD PTR [eax]
	mov	edx, DWORD PTR [ecx+4]
	mov	eax, DWORD PTR [edx+eax+40]
	test	eax, eax
	je	SHORT $LN8@Sentry_bas@2

; 81   : 				_Myostr.rdbuf()->_Unlock();

	lea	ecx, DWORD PTR [eax+4]
	jmp	?_Unlock@_Mutex@std@@QAEXXZ		; std::_Mutex::_Unlock
$LN8@Sentry_bas@2:

; 82   : 			}

	ret	0
??1_Sentry_base@?$basic_ostream@DU?$char_traits@D@std@@@std@@QAE@XZ ENDP ; std::basic_ostream<char,std::char_traits<char> >::_Sentry_base::~_Sentry_base
_TEXT	ENDS
PUBLIC	?_Inside@?$basic_string@DU?$char_traits@D@std@@V?$allocator@D@2@@std@@IAE_NPBD@Z ; std::basic_string<char,std::char_traits<char>,std::allocator<char> >::_Inside
; Function compile flags: /Ogtpy
; File c:\program files\microsoft visual studio 8\vc\include\xstring
;	COMDAT ?_Inside@?$basic_string@DU?$char_traits@D@std@@V?$allocator@D@2@@std@@IAE_NPBD@Z
_TEXT	SEGMENT
__Ptr$ = 8						; size = 4
?_Inside@?$basic_string@DU?$char_traits@D@std@@V?$allocator@D@2@@std@@IAE_NPBD@Z PROC ; std::basic_string<char,std::char_traits<char>,std::allocator<char> >::_Inside, COMDAT
; _this$ = ecx

; 2012 : 		{	// test if _Ptr points inside string

	push	esi

; 2013 : 		_DEBUG_POINTER(_Ptr);
; 2014 : 		if (_Ptr < _Myptr() || _Myptr() + _Mysize <= _Ptr)

	mov	esi, DWORD PTR [ecx+24]
	cmp	esi, 16					; 00000010H
	push	edi
	lea	eax, DWORD PTR [ecx+4]
	jb	SHORT $LN8@Inside
	mov	edx, DWORD PTR [eax]
	jmp	SHORT $LN9@Inside
$LN8@Inside:
	mov	edx, eax
$LN9@Inside:
	mov	edi, DWORD PTR __Ptr$[esp+4]
	cmp	edi, edx
	jb	SHORT $LN2@Inside
	cmp	esi, 16					; 00000010H
	jb	SHORT $LN12@Inside
	mov	eax, DWORD PTR [eax]
$LN12@Inside:
	mov	ecx, DWORD PTR [ecx+20]
	add	ecx, eax
	cmp	ecx, edi
	jbe	SHORT $LN2@Inside
	pop	edi

; 2016 : 		else
; 2017 : 			return (true);

	mov	al, 1
	pop	esi

; 2018 : 		}

	ret	4
$LN2@Inside:
	pop	edi

; 2015 : 			return (false);	// don't ask

	xor	al, al
	pop	esi

; 2018 : 		}

	ret	4
?_Inside@?$basic_string@DU?$char_traits@D@std@@V?$allocator@D@2@@std@@IAE_NPBD@Z ENDP ; std::basic_string<char,std::char_traits<char>,std::allocator<char> >::_Inside
_TEXT	ENDS
PUBLIC	?max_size@?$allocator@D@std@@QBEIXZ		; std::allocator<char>::max_size
; Function compile flags: /Ogtpy
; File c:\program files\microsoft visual studio 8\vc\include\xmemory
;	COMDAT ?max_size@?$allocator@D@std@@QBEIXZ
_TEXT	SEGMENT
?max_size@?$allocator@D@std@@QBEIXZ PROC		; std::allocator<char>::max_size, COMDAT
; _this$ = ecx

; 166  : 		_SIZT _Count = (_SIZT)(-1) / sizeof (_Ty);
; 167  : 		return (0 < _Count ? _Count : 1);

	or	eax, -1

; 168  : 		}

	ret	0
?max_size@?$allocator@D@std@@QBEIXZ ENDP		; std::allocator<char>::max_size
_TEXT	ENDS
PUBLIC	__TI2?AVbad_alloc@std@@
PUBLIC	??$_Allocate@D@std@@YAPADIPAD@Z			; std::_Allocate<char>
PUBLIC	__CTA2?AVbad_alloc@std@@
PUBLIC	__CT??_R0?AVbad_alloc@std@@@8??0bad_alloc@std@@QAE@ABV01@@Z12
PUBLIC	??0bad_alloc@std@@QAE@ABV01@@Z			; std::bad_alloc::bad_alloc
PUBLIC	__CT??_R0?AVexception@std@@@8??0exception@std@@QAE@ABV01@@Z12
EXTRN	??2@YAPAXI@Z:PROC				; operator new
EXTRN	__CxxThrowException@8:PROC
EXTRN	??0exception@std@@QAE@ABV01@@Z:PROC		; std::exception::exception
;	COMDAT __CT??_R0?AVexception@std@@@8??0exception@std@@QAE@ABV01@@Z12
; File c:\program files\microsoft visual studio 8\vc\include\exception
xdata$x	SEGMENT
__CT??_R0?AVexception@std@@@8??0exception@std@@QAE@ABV01@@Z12 DD 00H
	DD	FLAT:??_R0?AVexception@std@@@8
	DD	00H
	DD	0ffffffffH
	ORG $+4
	DD	0cH
	DD	FLAT:??0exception@std@@QAE@ABV01@@Z
xdata$x	ENDS
;	COMDAT __CT??_R0?AVbad_alloc@std@@@8??0bad_alloc@std@@QAE@ABV01@@Z12
xdata$x	SEGMENT
__CT??_R0?AVbad_alloc@std@@@8??0bad_alloc@std@@QAE@ABV01@@Z12 DD 00H
	DD	FLAT:??_R0?AVbad_alloc@std@@@8
	DD	00H
	DD	0ffffffffH
	ORG $+4
	DD	0cH
	DD	FLAT:??0bad_alloc@std@@QAE@ABV01@@Z
xdata$x	ENDS
;	COMDAT __CTA2?AVbad_alloc@std@@
xdata$x	SEGMENT
__CTA2?AVbad_alloc@std@@ DD 02H
	DD	FLAT:__CT??_R0?AVbad_alloc@std@@@8??0bad_alloc@std@@QAE@ABV01@@Z12
	DD	FLAT:__CT??_R0?AVexception@std@@@8??0exception@std@@QAE@ABV01@@Z12
xdata$x	ENDS
;	COMDAT __TI2?AVbad_alloc@std@@
xdata$x	SEGMENT
__TI2?AVbad_alloc@std@@ DD 00H
	DD	FLAT:??1bad_alloc@std@@UAE@XZ
	DD	00H
	DD	FLAT:__CTA2?AVbad_alloc@std@@
; Function compile flags: /Ogtpy
; File c:\program files\microsoft visual studio 8\vc\include\xmemory
xdata$x	ENDS
;	COMDAT ??$_Allocate@D@std@@YAPADIPAD@Z
_TEXT	SEGMENT
$T20100 = -12						; size = 12
$T20105 = 8						; size = 4
__Count$ = 8						; size = 4
___formal$ = 12						; size = 4
??$_Allocate@D@std@@YAPADIPAD@Z PROC			; std::_Allocate<char>, COMDAT

; 38   : 	if (_Count <= 0)

	mov	ecx, DWORD PTR __Count$[esp-4]
	sub	esp, 12					; 0000000cH
	test	ecx, ecx
	ja	SHORT $LN3@Allocate

; 39   : 		_Count = 0;

	xor	ecx, ecx
$LN1@Allocate:

; 42   : 
; 43   : 		// allocate storage for _Count elements of type _Ty
; 44   : 	return ((_Ty _FARQ *)::operator new(_Count * sizeof (_Ty)));

	push	ecx
	call	??2@YAPAXI@Z				; operator new
	add	esp, 4

; 45   : 	}

	add	esp, 12					; 0000000cH
	ret	0
$LN3@Allocate:

; 40   : 	else if (((_SIZT)(-1) / _Count) < sizeof (_Ty))

	or	eax, -1
	xor	edx, edx
	div	ecx
	cmp	eax, 1
	jae	SHORT $LN1@Allocate

; 41   : 		_THROW_NCEE(std::bad_alloc, NULL);

	lea	eax, DWORD PTR $T20105[esp+8]
	push	eax
	lea	ecx, DWORD PTR $T20100[esp+16]
	mov	DWORD PTR $T20105[esp+12], 0
	call	??0exception@std@@QAE@ABQBD@Z		; std::exception::exception
	push	OFFSET __TI2?AVbad_alloc@std@@
	lea	ecx, DWORD PTR $T20100[esp+16]
	push	ecx
	mov	DWORD PTR $T20100[esp+20], OFFSET ??_7bad_alloc@std@@6B@
	call	__CxxThrowException@8
$LN8@Allocate:
	int	3
??$_Allocate@D@std@@YAPADIPAD@Z ENDP			; std::_Allocate<char>
; Function compile flags: /Ogtpy
_TEXT	ENDS
;	COMDAT ??0bad_alloc@std@@QAE@ABV01@@Z
_TEXT	SEGMENT
___that$ = 8						; size = 4
??0bad_alloc@std@@QAE@ABV01@@Z PROC			; std::bad_alloc::bad_alloc, COMDAT
; _this$ = ecx
	mov	eax, DWORD PTR ___that$[esp-4]
	push	esi
	push	eax
	mov	esi, ecx
	call	??0exception@std@@QAE@ABV01@@Z		; std::exception::exception
	mov	DWORD PTR [esi], OFFSET ??_7bad_alloc@std@@6B@
	mov	eax, esi
	pop	esi
	ret	4
??0bad_alloc@std@@QAE@ABV01@@Z ENDP			; std::bad_alloc::bad_alloc
_TEXT	ENDS
PUBLIC	?sputn@?$basic_streambuf@DU?$char_traits@D@std@@@std@@QAEHPBDH@Z ; std::basic_streambuf<char,std::char_traits<char> >::sputn
; Function compile flags: /Ogtpy
; File c:\program files\microsoft visual studio 8\vc\include\streambuf
;	COMDAT ?sputn@?$basic_streambuf@DU?$char_traits@D@std@@@std@@QAEHPBDH@Z
_TEXT	SEGMENT
__Ptr$ = 8						; size = 4
__Count$ = 12						; size = 4
?sputn@?$basic_streambuf@DU?$char_traits@D@std@@@std@@QAEHPBDH@Z PROC ; std::basic_streambuf<char,std::char_traits<char> >::sputn, COMDAT
; _this$ = ecx

; 169  : 		return (xsputn(_Ptr, _Count));

	mov	eax, DWORD PTR [ecx]
	mov	eax, DWORD PTR [eax+32]
	jmp	eax
?sputn@?$basic_streambuf@DU?$char_traits@D@std@@@std@@QAEHPBDH@Z ENDP ; std::basic_streambuf<char,std::char_traits<char> >::sputn
_TEXT	ENDS
PUBLIC	?_Init@?$num_put@DV?$ostreambuf_iterator@DU?$char_traits@D@std@@@std@@@std@@IAEXABV_Locinfo@2@@Z ; std::num_put<char,std::ostreambuf_iterator<char,std::char_traits<char> > >::_Init
; Function compile flags: /Ogtpy
; File c:\program files\microsoft visual studio 8\vc\include\xlocnum
;	COMDAT ?_Init@?$num_put@DV?$ostreambuf_iterator@DU?$char_traits@D@std@@@std@@@std@@IAEXABV_Locinfo@2@@Z
_TEXT	SEGMENT
__Lobj$ = 8						; size = 4
?_Init@?$num_put@DV?$ostreambuf_iterator@DU?$char_traits@D@std@@@std@@@std@@IAEXABV_Locinfo@2@@Z PROC ; std::num_put<char,std::ostreambuf_iterator<char,std::char_traits<char> > >::_Init, COMDAT
; _this$ = ecx

; 853  : 		{	// initialize from _Locinfo object

	push	esi
	mov	esi, ecx

; 854  : 		_Cvt = _Lobj._Getcvt();

	call	__Getcvt
	mov	DWORD PTR [esi+8], eax
	mov	DWORD PTR [esi+12], edx
	pop	esi

; 855  : 		}

	ret	4
?_Init@?$num_put@DV?$ostreambuf_iterator@DU?$char_traits@D@std@@@std@@@std@@IAEXABV_Locinfo@2@@Z ENDP ; std::num_put<char,std::ostreambuf_iterator<char,std::char_traits<char> > >::_Init
_TEXT	ENDS
PUBLIC	?_Init@?$num_get@DV?$istreambuf_iterator@DU?$char_traits@D@std@@@std@@@std@@IAEXABV_Locinfo@2@@Z ; std::num_get<char,std::istreambuf_iterator<char,std::char_traits<char> > >::_Init
; Function compile flags: /Ogtpy
;	COMDAT ?_Init@?$num_get@DV?$istreambuf_iterator@DU?$char_traits@D@std@@@std@@@std@@IAEXABV_Locinfo@2@@Z
_TEXT	SEGMENT
__Lobj$ = 8						; size = 4
?_Init@?$num_get@DV?$istreambuf_iterator@DU?$char_traits@D@std@@@std@@@std@@IAEXABV_Locinfo@2@@Z PROC ; std::num_get<char,std::istreambuf_iterator<char,std::char_traits<char> > >::_Init, COMDAT
; _this$ = ecx

; 235  : 		{	// initialize from _Locinfo object

	push	esi
	mov	esi, ecx

; 236  : 		_Cvt = _Lobj._Getcvt();

	call	__Getcvt
	mov	DWORD PTR [esi+8], eax
	mov	DWORD PTR [esi+12], edx
	pop	esi

; 237  : 		}

	ret	4
?_Init@?$num_get@DV?$istreambuf_iterator@DU?$char_traits@D@std@@@std@@@std@@IAEXABV_Locinfo@2@@Z ENDP ; std::num_get<char,std::istreambuf_iterator<char,std::char_traits<char> > >::_Init
_TEXT	ENDS
PUBLIC	??$_Char_traits_cat@U?$char_traits@D@std@@@std@@YA?AU_Secure_char_traits_tag@0@XZ ; std::_Char_traits_cat<std::char_traits<char> >
; Function compile flags: /Ogtpy
; File c:\program files\microsoft visual studio 8\vc\include\iosfwd
;	COMDAT ??$_Char_traits_cat@U?$char_traits@D@std@@@std@@YA?AU_Secure_char_traits_tag@0@XZ
_TEXT	SEGMENT
__Secure$ = -1						; size = 1
??$_Char_traits_cat@U?$char_traits@D@std@@@std@@YA?AU_Secure_char_traits_tag@0@XZ PROC ; std::_Char_traits_cat<std::char_traits<char> >, COMDAT

; 568  : 	{

	push	ecx

; 569  : 		typename _Char_traits_category<_Traits>::_Secure_char_traits _Secure;
; 570  : 		return (_Secure);

	mov	al, BYTE PTR __Secure$[esp+4]

; 571  : 	}

	pop	ecx
	ret	0
??$_Char_traits_cat@U?$char_traits@D@std@@@std@@YA?AU_Secure_char_traits_tag@0@XZ ENDP ; std::_Char_traits_cat<std::char_traits<char> >
_TEXT	ENDS
PUBLIC	??$copy_s@U?$char_traits@D@std@@@_Traits_helper@std@@YAPADPADIPBDIU_Secure_char_traits_tag@1@@Z ; std::_Traits_helper::copy_s<std::char_traits<char> >
; Function compile flags: /Ogtpy
;	COMDAT ??$copy_s@U?$char_traits@D@std@@@_Traits_helper@std@@YAPADPADIPBDIU_Secure_char_traits_tag@1@@Z
_TEXT	SEGMENT
__First1$ = 8						; size = 4
__Size$ = 12						; size = 4
__First2$ = 16						; size = 4
__Count$ = 20						; size = 4
___formal$ = 24						; size = 1
??$copy_s@U?$char_traits@D@std@@@_Traits_helper@std@@YAPADPADIPBDIU_Secure_char_traits_tag@1@@Z PROC ; std::_Traits_helper::copy_s<std::char_traits<char> >, COMDAT

; 590  : 		return _Traits::_Copy_s(_First1, _Size, _First2, _Count);

	mov	eax, DWORD PTR __Count$[esp-4]
	mov	ecx, DWORD PTR __First2$[esp-4]
	mov	edx, DWORD PTR __Size$[esp-4]
	push	esi
	mov	esi, DWORD PTR __First1$[esp]
	push	eax
	push	ecx
	push	edx
	push	esi
	call	_memcpy_s
	add	esp, 16					; 00000010H
	mov	eax, esi
	pop	esi

; 591  : 	}

	ret	0
??$copy_s@U?$char_traits@D@std@@@_Traits_helper@std@@YAPADPADIPBDIU_Secure_char_traits_tag@1@@Z ENDP ; std::_Traits_helper::copy_s<std::char_traits<char> >
_TEXT	ENDS
PUBLIC	??$move_s@U?$char_traits@D@std@@@_Traits_helper@std@@YAPADPADIPBDIU_Secure_char_traits_tag@1@@Z ; std::_Traits_helper::move_s<std::char_traits<char> >
; Function compile flags: /Ogtpy
;	COMDAT ??$move_s@U?$char_traits@D@std@@@_Traits_helper@std@@YAPADPADIPBDIU_Secure_char_traits_tag@1@@Z
_TEXT	SEGMENT
__First1$ = 8						; size = 4
__Size$ = 12						; size = 4
__First2$ = 16						; size = 4
__Count$ = 20						; size = 4
___formal$ = 24						; size = 1
??$move_s@U?$char_traits@D@std@@@_Traits_helper@std@@YAPADPADIPBDIU_Secure_char_traits_tag@1@@Z PROC ; std::_Traits_helper::move_s<std::char_traits<char> >, COMDAT

; 617  : 		return _Traits::_Move_s(_First1, _Size, _First2, _Count);

	mov	eax, DWORD PTR __Count$[esp-4]
	mov	ecx, DWORD PTR __First2$[esp-4]
	mov	edx, DWORD PTR __Size$[esp-4]
	push	esi
	mov	esi, DWORD PTR __First1$[esp]
	push	eax
	push	ecx
	push	edx
	push	esi
	call	_memmove_s
	add	esp, 16					; 00000010H
	mov	eax, esi
	pop	esi

; 618  : 	}

	ret	0
??$move_s@U?$char_traits@D@std@@@_Traits_helper@std@@YAPADPADIPBDIU_Secure_char_traits_tag@1@@Z ENDP ; std::_Traits_helper::move_s<std::char_traits<char> >
_TEXT	ENDS
PUBLIC	??1_Sentry_base@?$basic_istream@DU?$char_traits@D@std@@@std@@QAE@XZ ; std::basic_istream<char,std::char_traits<char> >::_Sentry_base::~_Sentry_base
; Function compile flags: /Ogtpy
; File c:\program files\microsoft visual studio 8\vc\include\istream
;	COMDAT ??1_Sentry_base@?$basic_istream@DU?$char_traits@D@std@@@std@@QAE@XZ
_TEXT	SEGMENT
??1_Sentry_base@?$basic_istream@DU?$char_traits@D@std@@@std@@QAE@XZ PROC ; std::basic_istream<char,std::char_traits<char> >::_Sentry_base::~_Sentry_base, COMDAT
; _this$ = ecx

; 62   : 			if (_Myistr.rdbuf() != 0)

	mov	eax, DWORD PTR [ecx]
	mov	ecx, DWORD PTR [eax]
	mov	edx, DWORD PTR [ecx+4]
	mov	eax, DWORD PTR [edx+eax+40]
	test	eax, eax
	je	SHORT $LN8@Sentry_bas@3

; 63   : 				_Myistr.rdbuf()->_Unlock();

	lea	ecx, DWORD PTR [eax+4]
	jmp	?_Unlock@_Mutex@std@@QAEXXZ		; std::_Mutex::_Unlock
$LN8@Sentry_bas@3:

; 64   : 			}

	ret	0
??1_Sentry_base@?$basic_istream@DU?$char_traits@D@std@@@std@@QAE@XZ ENDP ; std::basic_istream<char,std::char_traits<char> >::_Sentry_base::~_Sentry_base
_TEXT	ENDS
PUBLIC	?sgetc@?$basic_streambuf@DU?$char_traits@D@std@@@std@@QAEHXZ ; std::basic_streambuf<char,std::char_traits<char> >::sgetc
; Function compile flags: /Ogtpy
; File c:\program files\microsoft visual studio 8\vc\include\streambuf
;	COMDAT ?sgetc@?$basic_streambuf@DU?$char_traits@D@std@@@std@@QAEHXZ
_TEXT	SEGMENT
?sgetc@?$basic_streambuf@DU?$char_traits@D@std@@@std@@QAEHXZ PROC ; std::basic_streambuf<char,std::char_traits<char> >::sgetc, COMDAT
; _this$ = ecx

; 112  : 		return (0 < _Gnavail()
; 113  : 			? _Traits::to_int_type(*gptr()) : underflow());

	mov	eax, DWORD PTR [ecx+32]
	cmp	DWORD PTR [eax], 0
	je	SHORT $LN3@sgetc
	mov	edx, DWORD PTR [ecx+48]
	cmp	DWORD PTR [edx], 0
	jle	SHORT $LN3@sgetc
	mov	eax, DWORD PTR [eax]
	movzx	eax, BYTE PTR [eax]

; 114  : 		}

	ret	0
$LN3@sgetc:

; 112  : 		return (0 < _Gnavail()
; 113  : 			? _Traits::to_int_type(*gptr()) : underflow());

	mov	edx, DWORD PTR [ecx]
	mov	eax, DWORD PTR [edx+16]
	jmp	eax
?sgetc@?$basic_streambuf@DU?$char_traits@D@std@@@std@@QAEHXZ ENDP ; std::basic_streambuf<char,std::char_traits<char> >::sgetc
_TEXT	ENDS
PUBLIC	??0?$_String_val@DV?$allocator@D@std@@@std@@IAE@V?$allocator@D@1@@Z ; std::_String_val<char,std::allocator<char> >::_String_val<char,std::allocator<char> >
; Function compile flags: /Ogtpy
; File c:\program files\microsoft visual studio 8\vc\include\xstring
;	COMDAT ??0?$_String_val@DV?$allocator@D@std@@@std@@IAE@V?$allocator@D@1@@Z
_TEXT	SEGMENT
__Al$ = 8						; size = 1
??0?$_String_val@DV?$allocator@D@std@@@std@@IAE@V?$allocator@D@1@@Z PROC ; std::_String_val<char,std::allocator<char> >::_String_val<char,std::allocator<char> >, COMDAT
; _this$ = ecx

; 470  : 		{	// construct allocator from _Al

	mov	eax, ecx

; 471  : 		}

	ret	4
??0?$_String_val@DV?$allocator@D@std@@@std@@IAE@V?$allocator@D@1@@Z ENDP ; std::_String_val<char,std::allocator<char> >::_String_val<char,std::allocator<char> >
_TEXT	ENDS
PUBLIC	??0_Sentry_base@?$basic_istream@DU?$char_traits@D@std@@@std@@QAE@AAV12@@Z ; std::basic_istream<char,std::char_traits<char> >::_Sentry_base::_Sentry_base
; Function compile flags: /Ogtpy
; File c:\program files\microsoft visual studio 8\vc\include\istream
;	COMDAT ??0_Sentry_base@?$basic_istream@DU?$char_traits@D@std@@@std@@QAE@AAV12@@Z
_TEXT	SEGMENT
__Istr$ = 8						; size = 4
??0_Sentry_base@?$basic_istream@DU?$char_traits@D@std@@@std@@QAE@AAV12@@Z PROC ; std::basic_istream<char,std::char_traits<char> >::_Sentry_base::_Sentry_base, COMDAT
; _this$ = ecx

; 55   : 			{	// lock the stream buffer, if there

	mov	eax, DWORD PTR __Istr$[esp-4]
	push	esi
	mov	esi, ecx
	mov	DWORD PTR [esi], eax

; 56   : 			if (_Myistr.rdbuf() != 0)

	mov	ecx, DWORD PTR [eax]
	mov	edx, DWORD PTR [ecx+4]
	mov	eax, DWORD PTR [edx+eax+40]
	test	eax, eax
	je	SHORT $LN10@Sentry_bas@4

; 57   : 				_Myistr.rdbuf()->_Lock();

	lea	ecx, DWORD PTR [eax+4]
	call	?_Lock@_Mutex@std@@QAEXXZ		; std::_Mutex::_Lock
$LN10@Sentry_bas@4:

; 58   : 			}

	mov	eax, esi
	pop	esi
	ret	4
??0_Sentry_base@?$basic_istream@DU?$char_traits@D@std@@@std@@QAE@AAV12@@Z ENDP ; std::basic_istream<char,std::char_traits<char> >::_Sentry_base::_Sentry_base
_TEXT	ENDS
PUBLIC	?sbumpc@?$basic_streambuf@DU?$char_traits@D@std@@@std@@QAEHXZ ; std::basic_streambuf<char,std::char_traits<char> >::sbumpc
; Function compile flags: /Ogtpy
; File c:\program files\microsoft visual studio 8\vc\include\streambuf
;	COMDAT ?sbumpc@?$basic_streambuf@DU?$char_traits@D@std@@@std@@QAEHXZ
_TEXT	SEGMENT
?sbumpc@?$basic_streambuf@DU?$char_traits@D@std@@@std@@QAEHXZ PROC ; std::basic_streambuf<char,std::char_traits<char> >::sbumpc, COMDAT
; _this$ = ecx

; 106  : 		return (0 < _Gnavail()
; 107  : 			? _Traits::to_int_type(*_Gninc()) : uflow());

	mov	eax, DWORD PTR [ecx+32]
	cmp	DWORD PTR [eax], 0
	je	SHORT $LN3@sbumpc
	mov	edx, DWORD PTR [ecx+48]
	cmp	DWORD PTR [edx], 0
	jle	SHORT $LN3@sbumpc
	mov	eax, edx
	add	DWORD PTR [eax], -1
	mov	ecx, DWORD PTR [ecx+32]
	mov	eax, DWORD PTR [ecx]
	lea	edx, DWORD PTR [eax+1]
	mov	DWORD PTR [ecx], edx
	movzx	eax, BYTE PTR [eax]

; 108  : 		}

	ret	0
$LN3@sbumpc:

; 106  : 		return (0 < _Gnavail()
; 107  : 			? _Traits::to_int_type(*_Gninc()) : uflow());

	mov	eax, DWORD PTR [ecx]
	mov	edx, DWORD PTR [eax+20]
	jmp	edx
?sbumpc@?$basic_streambuf@DU?$char_traits@D@std@@@std@@QAEHXZ ENDP ; std::basic_streambuf<char,std::char_traits<char> >::sbumpc
_TEXT	ENDS
PUBLIC	?sputc@?$basic_streambuf@DU?$char_traits@D@std@@@std@@QAEHD@Z ; std::basic_streambuf<char,std::char_traits<char> >::sputc
; Function compile flags: /Ogtpy
;	COMDAT ?sputc@?$basic_streambuf@DU?$char_traits@D@std@@@std@@QAEHD@Z
_TEXT	SEGMENT
__Ch$ = 8						; size = 1
?sputc@?$basic_streambuf@DU?$char_traits@D@std@@@std@@QAEHD@Z PROC ; std::basic_streambuf<char,std::char_traits<char> >::sputc, COMDAT
; _this$ = ecx

; 162  : 		return (0 < _Pnavail()
; 163  : 			? _Traits::to_int_type(*_Pninc() = _Ch)
; 164  : 			: overflow(_Traits::to_int_type(_Ch)));

	mov	eax, DWORD PTR [ecx+36]
	cmp	DWORD PTR [eax], 0
	je	SHORT $LN3@sputc
	mov	edx, DWORD PTR [ecx+52]
	cmp	DWORD PTR [edx], 0
	jle	SHORT $LN3@sputc
	mov	eax, edx
	add	DWORD PTR [eax], -1
	mov	ecx, DWORD PTR [ecx+36]
	mov	eax, DWORD PTR [ecx]
	lea	edx, DWORD PTR [eax+1]
	mov	DWORD PTR [ecx], edx
	mov	cl, BYTE PTR __Ch$[esp-4]
	mov	BYTE PTR [eax], cl
	movzx	eax, cl

; 165  : 		}

	ret	4
$LN3@sputc:

; 162  : 		return (0 < _Pnavail()
; 163  : 			? _Traits::to_int_type(*_Pninc() = _Ch)
; 164  : 			: overflow(_Traits::to_int_type(_Ch)));

	movzx	edx, BYTE PTR __Ch$[esp-4]
	mov	eax, DWORD PTR [ecx]
	mov	eax, DWORD PTR [eax+4]
	mov	DWORD PTR __Ch$[esp-4], edx
	jmp	eax
?sputc@?$basic_streambuf@DU?$char_traits@D@std@@@std@@QAEHD@Z ENDP ; std::basic_streambuf<char,std::char_traits<char> >::sputc
_TEXT	ENDS
PUBLIC	??0?$istreambuf_iterator@DU?$char_traits@D@std@@@std@@QAE@PAV?$basic_streambuf@DU?$char_traits@D@std@@@1@@Z ; std::istreambuf_iterator<char,std::char_traits<char> >::istreambuf_iterator<char,std::char_traits<char> >
; Function compile flags: /Ogtpy
; File c:\program files\microsoft visual studio 8\vc\include\xutility
;	COMDAT ??0?$istreambuf_iterator@DU?$char_traits@D@std@@@std@@QAE@PAV?$basic_streambuf@DU?$char_traits@D@std@@@1@@Z
_TEXT	SEGMENT
__Sb$ = 8						; size = 4
??0?$istreambuf_iterator@DU?$char_traits@D@std@@@std@@QAE@PAV?$basic_streambuf@DU?$char_traits@D@std@@@1@@Z PROC ; std::istreambuf_iterator<char,std::char_traits<char> >::istreambuf_iterator<char,std::char_traits<char> >, COMDAT
; _this$ = ecx

; 2059 : 		{	// construct from stream buffer _Sb

	mov	eax, ecx
	mov	ecx, DWORD PTR __Sb$[esp-4]
	test	ecx, ecx
	mov	DWORD PTR [eax+4], ecx
	sete	cl
	mov	DWORD PTR [eax], 0
	mov	BYTE PTR [eax+8], cl

; 2060 : 		}

	ret	4
??0?$istreambuf_iterator@DU?$char_traits@D@std@@@std@@QAE@PAV?$basic_streambuf@DU?$char_traits@D@std@@@1@@Z ENDP ; std::istreambuf_iterator<char,std::char_traits<char> >::istreambuf_iterator<char,std::char_traits<char> >
_TEXT	ENDS
PUBLIC	??0?$_Outit_with_base@U_Iterator_base@std@@@std@@QAE@XZ ; std::_Outit_with_base<std::_Iterator_base>::_Outit_with_base<std::_Iterator_base>
; Function compile flags: /Ogtpy
;	COMDAT ??0?$_Outit_with_base@U_Iterator_base@std@@@std@@QAE@XZ
_TEXT	SEGMENT
??0?$_Outit_with_base@U_Iterator_base@std@@@std@@QAE@XZ PROC ; std::_Outit_with_base<std::_Iterator_base>::_Outit_with_base<std::_Iterator_base>, COMDAT
; _this$ = ecx
	mov	eax, ecx
	mov	DWORD PTR [eax], 0
	ret	0
??0?$_Outit_with_base@U_Iterator_base@std@@@std@@QAE@XZ ENDP ; std::_Outit_with_base<std::_Iterator_base>::_Outit_with_base<std::_Iterator_base>
_TEXT	ENDS
PUBLIC	?_Eos@?$basic_string@DU?$char_traits@D@std@@V?$allocator@D@2@@std@@IAEXI@Z ; std::basic_string<char,std::char_traits<char>,std::allocator<char> >::_Eos
; Function compile flags: /Ogtpy
; File c:\program files\microsoft visual studio 8\vc\include\xstring
;	COMDAT ?_Eos@?$basic_string@DU?$char_traits@D@std@@V?$allocator@D@2@@std@@IAEXI@Z
_TEXT	SEGMENT
__Newsize$ = 8						; size = 4
?_Eos@?$basic_string@DU?$char_traits@D@std@@V?$allocator@D@2@@std@@IAEXI@Z PROC ; std::basic_string<char,std::char_traits<char>,std::allocator<char> >::_Eos, COMDAT
; _this$ = ecx

; 1993 : 		_Traits::assign(_Myptr()[_Mysize = _Newsize], _Elem());

	cmp	DWORD PTR [ecx+24], 16			; 00000010H
	mov	eax, DWORD PTR __Newsize$[esp-4]
	mov	DWORD PTR [ecx+20], eax
	jb	SHORT $LN5@Eos
	mov	ecx, DWORD PTR [ecx+4]
	mov	BYTE PTR [ecx+eax], 0

; 1994 : 		}

	ret	4

; 1993 : 		_Traits::assign(_Myptr()[_Mysize = _Newsize], _Elem());

$LN5@Eos:
	mov	BYTE PTR [ecx+eax+4], 0

; 1994 : 		}

	ret	4
?_Eos@?$basic_string@DU?$char_traits@D@std@@V?$allocator@D@2@@std@@IAEXI@Z ENDP ; std::basic_string<char,std::char_traits<char>,std::allocator<char> >::_Eos
_TEXT	ENDS
PUBLIC	?max_size@?$basic_string@DU?$char_traits@D@std@@V?$allocator@D@2@@std@@QBEIXZ ; std::basic_string<char,std::char_traits<char>,std::allocator<char> >::max_size
; Function compile flags: /Ogtpy
;	COMDAT ?max_size@?$basic_string@DU?$char_traits@D@std@@V?$allocator@D@2@@std@@QBEIXZ
_TEXT	SEGMENT
?max_size@?$basic_string@DU?$char_traits@D@std@@V?$allocator@D@2@@std@@QBEIXZ PROC ; std::basic_string<char,std::char_traits<char>,std::allocator<char> >::max_size, COMDAT
; _this$ = ecx

; 1604 : 		size_type _Num = _Mybase::_Alval.max_size();
; 1605 : 		return (_Num <= 1 ? 1 : _Num - 1);

	mov	eax, -2					; fffffffeH

; 1606 : 		}

	ret	0
?max_size@?$basic_string@DU?$char_traits@D@std@@V?$allocator@D@2@@std@@QBEIXZ ENDP ; std::basic_string<char,std::char_traits<char>,std::allocator<char> >::max_size
_TEXT	ENDS
PUBLIC	?allocate@?$allocator@D@std@@QAEPADI@Z		; std::allocator<char>::allocate
; Function compile flags: /Ogtpy
; File c:\program files\microsoft visual studio 8\vc\include\xmemory
;	COMDAT ?allocate@?$allocator@D@std@@QAEPADI@Z
_TEXT	SEGMENT
__Count$ = 8						; size = 4
?allocate@?$allocator@D@std@@QAEPADI@Z PROC		; std::allocator<char>::allocate, COMDAT
; _this$ = ecx

; 146  : 		return (_Allocate(_Count, (pointer)0));

	mov	eax, DWORD PTR __Count$[esp-4]
	push	0
	push	eax
	call	??$_Allocate@D@std@@YAPADIPAD@Z		; std::_Allocate<char>
	add	esp, 8

; 147  : 		}

	ret	4
?allocate@?$allocator@D@std@@QAEPADI@Z ENDP		; std::allocator<char>::allocate
_TEXT	ENDS
PUBLIC	??$copy_s@U?$char_traits@D@std@@@_Traits_helper@std@@YAPADPADIPBDI@Z ; std::_Traits_helper::copy_s<std::char_traits<char> >
; Function compile flags: /Ogtpy
; File c:\program files\microsoft visual studio 8\vc\include\iosfwd
;	COMDAT ??$copy_s@U?$char_traits@D@std@@@_Traits_helper@std@@YAPADPADIPBDI@Z
_TEXT	SEGMENT
__First1$ = 8						; size = 4
__Size$ = 12						; size = 4
__First2$ = 16						; size = 4
__Count$ = 20						; size = 4
??$copy_s@U?$char_traits@D@std@@@_Traits_helper@std@@YAPADPADIPBDI@Z PROC ; std::_Traits_helper::copy_s<std::char_traits<char> >, COMDAT

; 582  : 		return copy_s<_Traits>(_First1, _Size, _First2, _Count, _Char_traits_cat<_Traits>());

	mov	eax, DWORD PTR __Count$[esp-4]
	mov	ecx, DWORD PTR __First2$[esp-4]
	mov	edx, DWORD PTR __Size$[esp-4]
	push	esi
	mov	esi, DWORD PTR __First1$[esp]
	push	eax
	push	ecx
	push	edx
	push	esi
	call	_memcpy_s
	add	esp, 16					; 00000010H
	mov	eax, esi
	pop	esi

; 583  : 	}

	ret	0
??$copy_s@U?$char_traits@D@std@@@_Traits_helper@std@@YAPADPADIPBDI@Z ENDP ; std::_Traits_helper::copy_s<std::char_traits<char> >
_TEXT	ENDS
PUBLIC	??$move_s@U?$char_traits@D@std@@@_Traits_helper@std@@YAPADPADIPBDI@Z ; std::_Traits_helper::move_s<std::char_traits<char> >
; Function compile flags: /Ogtpy
;	COMDAT ??$move_s@U?$char_traits@D@std@@@_Traits_helper@std@@YAPADPADIPBDI@Z
_TEXT	SEGMENT
__First1$ = 8						; size = 4
__Size$ = 12						; size = 4
__First2$ = 16						; size = 4
__Count$ = 20						; size = 4
??$move_s@U?$char_traits@D@std@@@_Traits_helper@std@@YAPADPADIPBDI@Z PROC ; std::_Traits_helper::move_s<std::char_traits<char> >, COMDAT

; 609  : 		return move_s<_Traits>(_First1, _Size, _First2, _Count, _Char_traits_cat<_Traits>());

	mov	eax, DWORD PTR __Count$[esp-4]
	mov	ecx, DWORD PTR __First2$[esp-4]
	mov	edx, DWORD PTR __Size$[esp-4]
	push	esi
	mov	esi, DWORD PTR __First1$[esp]
	push	eax
	push	ecx
	push	edx
	push	esi
	call	_memmove_s
	add	esp, 16					; 00000010H
	mov	eax, esi
	pop	esi

; 610  : 	}

	ret	0
??$move_s@U?$char_traits@D@std@@@_Traits_helper@std@@YAPADPADIPBDI@Z ENDP ; std::_Traits_helper::move_s<std::char_traits<char> >
_TEXT	ENDS
PUBLIC	??1sentry@?$basic_istream@DU?$char_traits@D@std@@@std@@QAE@XZ ; std::basic_istream<char,std::char_traits<char> >::sentry::~sentry
; Function compile flags: /Ogtpy
;	COMDAT ??1sentry@?$basic_istream@DU?$char_traits@D@std@@@std@@QAE@XZ
_TEXT	SEGMENT
??1sentry@?$basic_istream@DU?$char_traits@D@std@@@std@@QAE@XZ PROC ; std::basic_istream<char,std::char_traits<char> >::sentry::~sentry, COMDAT
; _this$ = ecx
	mov	eax, DWORD PTR [ecx]
	mov	ecx, DWORD PTR [eax]
	mov	edx, DWORD PTR [ecx+4]
	mov	eax, DWORD PTR [edx+eax+40]
	test	eax, eax
	je	SHORT $LN11@sentry
	lea	ecx, DWORD PTR [eax+4]
	jmp	?_Unlock@_Mutex@std@@QAEXXZ		; std::_Mutex::_Unlock
$LN11@sentry:
	ret	0
??1sentry@?$basic_istream@DU?$char_traits@D@std@@@std@@QAE@XZ ENDP ; std::basic_istream<char,std::char_traits<char> >::sentry::~sentry
_TEXT	ENDS
PUBLIC	?snextc@?$basic_streambuf@DU?$char_traits@D@std@@@std@@QAEHXZ ; std::basic_streambuf<char,std::char_traits<char> >::snextc
; Function compile flags: /Ogtpy
; File c:\program files\microsoft visual studio 8\vc\include\streambuf
;	COMDAT ?snextc@?$basic_streambuf@DU?$char_traits@D@std@@@std@@QAEHXZ
_TEXT	SEGMENT
?snextc@?$basic_streambuf@DU?$char_traits@D@std@@@std@@QAEHXZ PROC ; std::basic_streambuf<char,std::char_traits<char> >::snextc, COMDAT
; _this$ = ecx

; 131  : 		{	// point to next character and return it

	push	esi
	mov	esi, ecx

; 132  : 		return (1 < _Gnavail()
; 133  : 			? _Traits::to_int_type(*_Gnpreinc())
; 134  : 			: _Traits::eq_int_type(_Traits::eof(), sbumpc())
; 135  : 				? _Traits::eof() : sgetc());

	mov	eax, DWORD PTR [esi+32]
	mov	eax, DWORD PTR [eax]
	test	eax, eax
	je	SHORT $LN17@snextc
	mov	ecx, DWORD PTR [esi+48]
	mov	ecx, DWORD PTR [ecx]
	cmp	ecx, 1
	jle	SHORT $LN5@snextc
	mov	eax, DWORD PTR [esi+48]
	add	DWORD PTR [eax], -1
	mov	eax, DWORD PTR [esi+32]
	add	DWORD PTR [eax], 1
	mov	edx, DWORD PTR [esi+32]
	mov	eax, DWORD PTR [edx]
	movzx	eax, BYTE PTR [eax]
	pop	esi

; 136  : 		}

	ret	0
$LN5@snextc:

; 132  : 		return (1 < _Gnavail()
; 133  : 			? _Traits::to_int_type(*_Gnpreinc())
; 134  : 			: _Traits::eq_int_type(_Traits::eof(), sbumpc())
; 135  : 				? _Traits::eof() : sgetc());

	test	eax, eax
	je	SHORT $LN17@snextc
	mov	ecx, DWORD PTR [esi+48]
	cmp	DWORD PTR [ecx], 0
	jle	SHORT $LN17@snextc
	mov	eax, ecx
	add	DWORD PTR [eax], -1
	mov	eax, DWORD PTR [esi+32]
	mov	ecx, DWORD PTR [eax]
	lea	edx, DWORD PTR [ecx+1]
	mov	DWORD PTR [eax], edx
	movzx	eax, BYTE PTR [ecx]
	jmp	SHORT $LN18@snextc
$LN17@snextc:
	mov	eax, DWORD PTR [esi]
	mov	edx, DWORD PTR [eax+20]
	mov	ecx, esi
	call	edx
$LN18@snextc:
	cmp	eax, -1
	jne	SHORT $LN3@snextc
	or	eax, eax
	pop	esi

; 136  : 		}

	ret	0
$LN3@snextc:

; 132  : 		return (1 < _Gnavail()
; 133  : 			? _Traits::to_int_type(*_Gnpreinc())
; 134  : 			: _Traits::eq_int_type(_Traits::eof(), sbumpc())
; 135  : 				? _Traits::eof() : sgetc());

	mov	eax, DWORD PTR [esi+32]
	cmp	DWORD PTR [eax], 0
	je	SHORT $LN35@snextc
	mov	ecx, DWORD PTR [esi+48]
	cmp	DWORD PTR [ecx], 0
	jle	SHORT $LN35@snextc
	mov	edx, DWORD PTR [eax]
	movzx	eax, BYTE PTR [edx]
	pop	esi

; 136  : 		}

	ret	0

; 132  : 		return (1 < _Gnavail()
; 133  : 			? _Traits::to_int_type(*_Gnpreinc())
; 134  : 			: _Traits::eq_int_type(_Traits::eof(), sbumpc())
; 135  : 				? _Traits::eof() : sgetc());

$LN35@snextc:
	mov	eax, DWORD PTR [esi]
	mov	edx, DWORD PTR [eax+16]
	mov	ecx, esi
	pop	esi
	jmp	edx
?snextc@?$basic_streambuf@DU?$char_traits@D@std@@@std@@QAEHXZ ENDP ; std::basic_streambuf<char,std::char_traits<char> >::snextc
_TEXT	ENDS
PUBLIC	?_Tidy@?$basic_string@DU?$char_traits@D@std@@V?$allocator@D@2@@std@@IAEX_NI@Z ; std::basic_string<char,std::char_traits<char>,std::allocator<char> >::_Tidy
; Function compile flags: /Ogtpy
; File c:\program files\microsoft visual studio 8\vc\include\xstring
;	COMDAT ?_Tidy@?$basic_string@DU?$char_traits@D@std@@V?$allocator@D@2@@std@@IAEX_NI@Z
_TEXT	SEGMENT
__Built$ = 8						; size = 1
__Newsize$ = 12						; size = 4
?_Tidy@?$basic_string@DU?$char_traits@D@std@@V?$allocator@D@2@@std@@IAEX_NI@Z PROC ; std::basic_string<char,std::char_traits<char>,std::allocator<char> >::_Tidy, COMDAT
; _this$ = ecx

; 2029 : 		if (!_Built)

	cmp	BYTE PTR __Built$[esp-4], 0
	push	esi
	push	edi
	mov	edi, DWORD PTR __Newsize$[esp+4]
	mov	esi, ecx
	je	SHORT $LN15@Tidy@2

; 2030 : 			;
; 2031 : 		else if (_BUF_SIZE <= _Myres)

	cmp	DWORD PTR [esi+24], 16			; 00000010H
	jb	SHORT $LN15@Tidy@2

; 2032 : 			{	// copy any leftovers to small buffer and deallocate
; 2033 : 			_Elem *_Ptr = _Bx._Ptr;
; 2034 : 			if (0 < _Newsize)

	test	edi, edi
	lea	eax, DWORD PTR [esi+4]
	push	ebx
	mov	ebx, DWORD PTR [eax]
	jbe	SHORT $LN13@Tidy@2

; 2035 : 				_Traits_helper::copy_s<_Traits>(_Bx._Buf, _BUF_SIZE, _Ptr, _Newsize);

	push	edi
	push	ebx
	push	16					; 00000010H
	push	eax
	call	_memcpy_s
	add	esp, 16					; 00000010H
$LN13@Tidy@2:

; 2036 : 			_Mybase::_Alval.deallocate(_Ptr, _Myres + 1);

	push	ebx
	call	??3@YAXPAX@Z				; operator delete
	add	esp, 4
	pop	ebx
$LN15@Tidy@2:

; 2037 : 			}
; 2038 : 		_Myres = _BUF_SIZE - 1;
; 2039 : 		_Eos(_Newsize);

	mov	DWORD PTR [esi+20], edi
	mov	DWORD PTR [esi+24], 15			; 0000000fH
	mov	BYTE PTR [esi+edi+4], 0
	pop	edi
	pop	esi

; 2040 : 		}

	ret	8
?_Tidy@?$basic_string@DU?$char_traits@D@std@@V?$allocator@D@2@@std@@IAEX_NI@Z ENDP ; std::basic_string<char,std::char_traits<char>,std::allocator<char> >::_Tidy
_TEXT	ENDS
PUBLIC	??0?$ostreambuf_iterator@DU?$char_traits@D@std@@@std@@QAE@PAV?$basic_streambuf@DU?$char_traits@D@std@@@1@@Z ; std::ostreambuf_iterator<char,std::char_traits<char> >::ostreambuf_iterator<char,std::char_traits<char> >
; Function compile flags: /Ogtpy
; File c:\program files\microsoft visual studio 8\vc\include\xutility
;	COMDAT ??0?$ostreambuf_iterator@DU?$char_traits@D@std@@@std@@QAE@PAV?$basic_streambuf@DU?$char_traits@D@std@@@1@@Z
_TEXT	SEGMENT
__Sb$ = 8						; size = 4
??0?$ostreambuf_iterator@DU?$char_traits@D@std@@@std@@QAE@PAV?$basic_streambuf@DU?$char_traits@D@std@@@1@@Z PROC ; std::ostreambuf_iterator<char,std::char_traits<char> >::ostreambuf_iterator<char,std::char_traits<char> >, COMDAT
; _this$ = ecx

; 2176 : 		{	// construct from stream buffer _Sb

	mov	eax, ecx
	mov	ecx, DWORD PTR __Sb$[esp-4]
	mov	DWORD PTR [eax], 0
	mov	BYTE PTR [eax+4], 0
	mov	DWORD PTR [eax+8], ecx

; 2177 : 		}

	ret	4
??0?$ostreambuf_iterator@DU?$char_traits@D@std@@@std@@QAE@PAV?$basic_streambuf@DU?$char_traits@D@std@@@1@@Z ENDP ; std::ostreambuf_iterator<char,std::char_traits<char> >::ostreambuf_iterator<char,std::char_traits<char> >
_TEXT	ENDS
PUBLIC	?erase@?$basic_string@DU?$char_traits@D@std@@V?$allocator@D@2@@std@@QAEAAV12@II@Z ; std::basic_string<char,std::char_traits<char>,std::allocator<char> >::erase
EXTRN	?_Xran@_String_base@std@@SAXXZ:PROC		; std::_String_base::_Xran
; Function compile flags: /Ogtpy
; File c:\program files\microsoft visual studio 8\vc\include\xstring
;	COMDAT ?erase@?$basic_string@DU?$char_traits@D@std@@V?$allocator@D@2@@std@@QAEAAV12@II@Z
_TEXT	SEGMENT
tv130 = 8						; size = 4
__Off$ = 8						; size = 4
__Count$ = 12						; size = 4
?erase@?$basic_string@DU?$char_traits@D@std@@V?$allocator@D@2@@std@@QAEAAV12@II@Z PROC ; std::basic_string<char,std::char_traits<char>,std::allocator<char> >::erase, COMDAT
; _this$ = ecx

; 1202 : 		{	// erase elements [_Off, _Off + _Count)

	push	ebx

; 1203 : 		if (_Mysize < _Off)

	mov	ebx, DWORD PTR __Off$[esp]
	push	esi
	mov	esi, ecx
	cmp	DWORD PTR [esi+20], ebx
	push	edi
	jae	SHORT $LN3@erase

; 1204 : 			_String_base::_Xran();	// _Off off end

	call	?_Xran@_String_base@std@@SAXXZ		; std::_String_base::_Xran
$LN3@erase:

; 1205 : 		if (_Mysize - _Off < _Count)

	mov	eax, DWORD PTR [esi+20]
	mov	edi, DWORD PTR __Count$[esp+8]
	sub	eax, ebx
	cmp	eax, edi
	jae	SHORT $LN2@erase

; 1206 : 			_Count = _Mysize - _Off;	// trim _Count

	mov	edi, eax
$LN2@erase:

; 1207 : 		if (0 < _Count)

	test	edi, edi
	jbe	SHORT $LN30@erase

; 1208 : 			{	// move elements down
; 1209 : 			_Traits_helper::move_s<_Traits>(_Myptr() + _Off, _Myres - _Off, _Myptr() + _Off + _Count,
; 1210 : 				_Mysize - _Off - _Count);

	mov	ecx, DWORD PTR [esi+24]
	cmp	ecx, 16					; 00000010H
	push	ebp
	lea	ebp, DWORD PTR [esi+4]
	jb	SHORT $LN8@erase
	mov	edx, DWORD PTR [ebp]
	mov	DWORD PTR tv130[esp+12], edx
	jmp	SHORT $LN9@erase
$LN8@erase:
	mov	DWORD PTR tv130[esp+12], ebp
$LN9@erase:
	cmp	ecx, 16					; 00000010H
	jb	SHORT $LN12@erase
	mov	edx, DWORD PTR [ebp]
	jmp	SHORT $LN13@erase
$LN12@erase:
	mov	edx, ebp
$LN13@erase:
	sub	eax, edi
	push	eax
	mov	eax, DWORD PTR tv130[esp+16]
	add	eax, ebx
	add	eax, edi
	push	eax
	sub	ecx, ebx
	push	ecx
	add	edx, ebx
	push	edx
	call	_memmove_s

; 1211 : 			size_type _Newsize = _Mysize - _Count;

	mov	eax, DWORD PTR [esi+20]
	sub	eax, edi
	add	esp, 16					; 00000010H

; 1212 : 			_Eos(_Newsize);

	cmp	DWORD PTR [esi+24], 16			; 00000010H
	mov	DWORD PTR [esi+20], eax
	jb	SHORT $LN26@erase
	mov	ebp, DWORD PTR [ebp]
$LN26@erase:
	mov	BYTE PTR [eax+ebp], 0
	pop	ebp
$LN30@erase:
	pop	edi

; 1213 : 			}
; 1214 : 		return (*this);

	mov	eax, esi
	pop	esi
	pop	ebx

; 1215 : 		}

	ret	8
?erase@?$basic_string@DU?$char_traits@D@std@@V?$allocator@D@2@@std@@QAEAAV12@II@Z ENDP ; std::basic_string<char,std::char_traits<char>,std::allocator<char> >::erase
_TEXT	ENDS
PUBLIC	?_Copy@?$basic_string@DU?$char_traits@D@std@@V?$allocator@D@2@@std@@IAEXII@Z ; std::basic_string<char,std::char_traits<char>,std::allocator<char> >::_Copy
EXTRN	___security_cookie:DWORD
EXTRN	___CxxFrameHandler3:PROC
EXTRN	@__security_check_cookie@4:PROC
;	COMDAT xdata$x
; File c:\program files\microsoft visual studio 8\vc\include\iosfwd
xdata$x	SEGMENT
__catchsym$?_Copy@?$basic_string@DU?$char_traits@D@std@@V?$allocator@D@2@@std@@IAEXII@Z$5 DD 040H
	DD	00H
	DD	00H
	DD	FLAT:__catch$?_Copy@?$basic_string@DU?$char_traits@D@std@@V?$allocator@D@2@@std@@IAEXII@Z$0
__catchsym$?_Copy@?$basic_string@DU?$char_traits@D@std@@V?$allocator@D@2@@std@@IAEXII@Z$4 DD 040H
	DD	00H
	DD	00H
	DD	FLAT:__catch$?_Copy@?$basic_string@DU?$char_traits@D@std@@V?$allocator@D@2@@std@@IAEXII@Z$1
__unwindtable$?_Copy@?$basic_string@DU?$char_traits@D@std@@V?$allocator@D@2@@std@@IAEXII@Z DD 0ffffffffH
	DD	00H
	DD	0ffffffffH
	DD	00H
	DD	01H
	DD	00H
	DD	01H
	DD	00H
__ehfuncinfo$?_Copy@?$basic_string@DU?$char_traits@D@std@@V?$allocator@D@2@@std@@IAEXII@Z DD 019930522H
	DD	04H
	DD	FLAT:__unwindtable$?_Copy@?$basic_string@DU?$char_traits@D@std@@V?$allocator@D@2@@std@@IAEXII@Z
	DD	02H
	DD	FLAT:__tryblocktable$?_Copy@?$basic_string@DU?$char_traits@D@std@@V?$allocator@D@2@@std@@IAEXII@Z
	DD	2 DUP(00H)
	DD	00H
	DD	01H
__tryblocktable$?_Copy@?$basic_string@DU?$char_traits@D@std@@V?$allocator@D@2@@std@@IAEXII@Z DD 02H
	DD	02H
	DD	03H
	DD	01H
	DD	FLAT:__catchsym$?_Copy@?$basic_string@DU?$char_traits@D@std@@V?$allocator@D@2@@std@@IAEXII@Z$4
	DD	00H
	DD	00H
	DD	03H
	DD	01H
	DD	FLAT:__catchsym$?_Copy@?$basic_string@DU?$char_traits@D@std@@V?$allocator@D@2@@std@@IAEXII@Z$5
; Function compile flags: /Ogtpy
; File c:\program files\microsoft visual studio 8\vc\include\xstring
xdata$x	ENDS
;	COMDAT ?_Copy@?$basic_string@DU?$char_traits@D@std@@V?$allocator@D@2@@std@@IAEXII@Z
_TEXT	SEGMENT
__Newres$ = -24						; size = 4
_this$ = -20						; size = 4
__$EHRec$ = -16						; size = 16
__Ptr$ = 8						; size = 4
__Newsize$ = 8						; size = 4
__Oldlen$ = 12						; size = 4
?_Copy@?$basic_string@DU?$char_traits@D@std@@V?$allocator@D@2@@std@@IAEXII@Z PROC ; std::basic_string<char,std::char_traits<char>,std::allocator<char> >::_Copy, COMDAT
; _this$ = ecx

; 1962 : 		{	// copy _Oldlen elements to newly allocated buffer

	push	ebp
	mov	ebp, esp
	push	-1
	push	__ehhandler$?_Copy@?$basic_string@DU?$char_traits@D@std@@V?$allocator@D@2@@std@@IAEXII@Z
	mov	eax, DWORD PTR fs:0
	push	eax
	sub	esp, 12					; 0000000cH
	push	ebx
	push	esi
	push	edi
	mov	eax, DWORD PTR ___security_cookie
	xor	eax, ebp
	push	eax
	lea	eax, DWORD PTR __$EHRec$[ebp+4]
	mov	DWORD PTR fs:0, eax
	mov	DWORD PTR __$EHRec$[ebp], esp
	mov	edi, ecx
	mov	DWORD PTR _this$[ebp], edi

; 1963 : 		size_type _Newres = _Newsize | _ALLOC_MASK;

	mov	eax, DWORD PTR __Newsize$[ebp]
	mov	esi, eax
	or	esi, 15					; 0000000fH

; 1964 : 		if (max_size() < _Newres)

	cmp	esi, -2					; fffffffeH
	jbe	SHORT $LN6@Copy

; 1965 : 			_Newres = _Newsize;	// undo roundup if too big

	mov	esi, eax

; 1966 : 		else if (_Newres / 3 < _Myres / 2

	jmp	SHORT $LN4@Copy
$LN6@Copy:

; 1967 : 			&& _Myres <= max_size() - _Myres / 2)

	mov	ebx, DWORD PTR [edi+24]
	mov	eax, -1431655765			; aaaaaaabH
	mul	esi
	mov	ecx, ebx
	shr	ecx, 1
	shr	edx, 1
	cmp	edx, ecx
	jae	SHORT $LN4@Copy
	mov	eax, -2					; fffffffeH
	sub	eax, ecx
	cmp	ebx, eax
	ja	SHORT $LN4@Copy

; 1968 : 			_Newres = _Myres + _Myres / 2;	// grow exponentially if possible

	lea	esi, DWORD PTR [ecx+ebx]
$LN4@Copy:

; 1969 : 		_Elem *_Ptr = 0;
; 1970 : 
; 1971 : 		_TRY_BEGIN
; 1972 : 			_Ptr = _Mybase::_Alval.allocate(_Newres + 1);

	lea	ecx, DWORD PTR [esi+1]
	push	0
	push	ecx
	mov	DWORD PTR __$EHRec$[ebp+12], 0
	call	??$_Allocate@D@std@@YAPADIPAD@Z		; std::_Allocate<char>
	add	esp, 8
	mov	DWORD PTR __Ptr$[ebp], eax

; 1980 : 			_CATCH_END
; 1981 : 		_CATCH_END

	jmp	SHORT $LN16@Copy
__catch$?_Copy@?$basic_string@DU?$char_traits@D@std@@V?$allocator@D@2@@std@@IAEXII@Z$0:

; 1973 : 		_CATCH_ALL
; 1974 : 			_Newres = _Newsize;	// allocation failed, undo roundup and retry

	mov	eax, DWORD PTR __Newsize$[ebp]
	mov	DWORD PTR __$EHRec$[ebp], esp
	mov	DWORD PTR __Newres$[ebp], eax

; 1975 : 			_TRY_BEGIN
; 1976 : 				_Ptr = _Mybase::_Alval.allocate(_Newres + 1);

	add	eax, 1
	push	0
	push	eax
	mov	BYTE PTR __$EHRec$[ebp+12], 2
	call	??$_Allocate@D@std@@YAPADIPAD@Z		; std::_Allocate<char>
	mov	DWORD PTR __Ptr$[ebp], eax
	add	esp, 8

; 1980 : 			_CATCH_END
; 1981 : 		_CATCH_END

	mov	eax, $LN105@Copy
	ret	0
$LN105@Copy:
	mov	edi, DWORD PTR _this$[ebp]
	mov	esi, DWORD PTR __Newres$[ebp]
$LN16@Copy:

; 1982 : 
; 1983 : 		if (0 < _Oldlen)

	mov	ebx, DWORD PTR __Oldlen$[ebp]
	test	ebx, ebx
	jbe	SHORT $LN71@Copy

; 1984 : 			_Traits_helper::copy_s<_Traits>(_Ptr, _Newres + 1, _Myptr(), _Oldlen);	// copy existing elements

	cmp	DWORD PTR [edi+24], 16			; 00000010H
	jb	SHORT $LN63@Copy
	mov	eax, DWORD PTR [edi+4]
	jmp	SHORT $LN64@Copy
$LN63@Copy:
	lea	eax, DWORD PTR [edi+4]
$LN64@Copy:
	push	ebx
	push	eax
	mov	eax, DWORD PTR __Ptr$[ebp]
	lea	edx, DWORD PTR [esi+1]
	push	edx
	push	eax
	call	_memcpy_s
	add	esp, 16					; 00000010H
$LN71@Copy:

; 1985 : 		_Tidy(true);

	cmp	DWORD PTR [edi+24], 16			; 00000010H
	jb	SHORT $LN87@Copy
	mov	ecx, DWORD PTR [edi+4]
	push	ecx
	call	??3@YAXPAX@Z				; operator delete
	add	esp, 4
$LN87@Copy:

; 1986 : 		_Bx._Ptr = _Ptr;
; 1987 : 		_Myres = _Newres;
; 1988 : 		_Eos(_Oldlen);

	cmp	esi, 16					; 00000010H
	mov	ecx, DWORD PTR __Ptr$[ebp]
	lea	eax, DWORD PTR [edi+4]
	mov	BYTE PTR [eax], 0
	mov	DWORD PTR [eax], ecx
	mov	DWORD PTR [edi+24], esi
	mov	DWORD PTR [edi+20], ebx
	jb	SHORT $LN101@Copy
	mov	eax, ecx
$LN101@Copy:
	mov	BYTE PTR [eax+ebx], 0

; 1989 : 		}

	mov	ecx, DWORD PTR __$EHRec$[ebp+4]
	mov	DWORD PTR fs:0, ecx
	pop	ecx
	pop	edi
	pop	esi
	pop	ebx
	mov	esp, ebp
	pop	ebp
	ret	8
__catch$?_Copy@?$basic_string@DU?$char_traits@D@std@@V?$allocator@D@2@@std@@IAEXII@Z$1:

; 1977 : 			_CATCH_ALL
; 1978 : 			_Tidy(true);	// failed again, discard storage and reraise

	mov	esi, DWORD PTR _this$[ebp]
	cmp	DWORD PTR [esi+24], 16			; 00000010H
	jb	SHORT $LN51@Copy
	mov	edx, DWORD PTR [esi+4]
	push	edx
	call	??3@YAXPAX@Z				; operator delete
	add	esp, 4
$LN51@Copy:

; 1979 : 			_RERAISE;

	push	0
	mov	DWORD PTR [esi+24], 15			; 0000000fH
	mov	DWORD PTR [esi+20], 0
	push	0
	mov	BYTE PTR [esi+4], 0
	call	__CxxThrowException@8
$LN108@Copy:
	int	3
_TEXT	ENDS
;	COMDAT text$x
text$x	SEGMENT
__ehhandler$?_Copy@?$basic_string@DU?$char_traits@D@std@@V?$allocator@D@2@@std@@IAEXII@Z:
	mov	edx, DWORD PTR [esp+8]
	lea	eax, DWORD PTR [edx+12]
	mov	ecx, DWORD PTR [edx-28]
	xor	ecx, eax
	call	@__security_check_cookie@4
	mov	eax, OFFSET __ehfuncinfo$?_Copy@?$basic_string@DU?$char_traits@D@std@@V?$allocator@D@2@@std@@IAEXII@Z
	jmp	___CxxFrameHandler3
text$x	ENDS
?_Copy@?$basic_string@DU?$char_traits@D@std@@V?$allocator@D@2@@std@@IAEXII@Z ENDP ; std::basic_string<char,std::char_traits<char>,std::allocator<char> >::_Copy
PUBLIC	??0?$basic_string@DU?$char_traits@D@std@@V?$allocator@D@2@@std@@QAE@XZ ; std::basic_string<char,std::char_traits<char>,std::allocator<char> >::basic_string<char,std::char_traits<char>,std::allocator<char> >
; Function compile flags: /Ogtpy
;	COMDAT ??0?$basic_string@DU?$char_traits@D@std@@V?$allocator@D@2@@std@@QAE@XZ
_TEXT	SEGMENT
??0?$basic_string@DU?$char_traits@D@std@@V?$allocator@D@2@@std@@QAE@XZ PROC ; std::basic_string<char,std::char_traits<char>,std::allocator<char> >::basic_string<char,std::char_traits<char>,std::allocator<char> >, COMDAT
; _this$ = ecx

; 550  : 		{	// construct empty string

	mov	eax, ecx

; 551  : 		_Tidy();

	xor	ecx, ecx
	mov	DWORD PTR [eax+24], 15			; 0000000fH
	mov	DWORD PTR [eax+20], ecx
	mov	BYTE PTR [eax+4], cl

; 552  : 		}

	ret	0
??0?$basic_string@DU?$char_traits@D@std@@V?$allocator@D@2@@std@@QAE@XZ ENDP ; std::basic_string<char,std::char_traits<char>,std::allocator<char> >::basic_string<char,std::char_traits<char>,std::allocator<char> >
_TEXT	ENDS
PUBLIC	??1?$basic_string@DU?$char_traits@D@std@@V?$allocator@D@2@@std@@QAE@XZ ; std::basic_string<char,std::char_traits<char>,std::allocator<char> >::~basic_string<char,std::char_traits<char>,std::allocator<char> >
; Function compile flags: /Ogtpy
;	COMDAT ??1?$basic_string@DU?$char_traits@D@std@@V?$allocator@D@2@@std@@QAE@XZ
_TEXT	SEGMENT
??1?$basic_string@DU?$char_traits@D@std@@V?$allocator@D@2@@std@@QAE@XZ PROC ; std::basic_string<char,std::char_traits<char>,std::allocator<char> >::~basic_string<char,std::char_traits<char>,std::allocator<char> >, COMDAT
; _this$ = ecx

; 866  : 		{	// destroy the string

	push	esi
	mov	esi, ecx

; 867  : 		_Tidy(true);

	cmp	DWORD PTR [esi+24], 16			; 00000010H
	jb	SHORT $LN17@basic_stri
	mov	eax, DWORD PTR [esi+4]
	push	eax
	call	??3@YAXPAX@Z				; operator delete
	add	esp, 4
$LN17@basic_stri:
	xor	eax, eax
	mov	DWORD PTR [esi+24], 15			; 0000000fH
	mov	DWORD PTR [esi+20], eax
	mov	BYTE PTR [esi+4], al
	pop	esi

; 868  : 		}

	ret	0
??1?$basic_string@DU?$char_traits@D@std@@V?$allocator@D@2@@std@@QAE@XZ ENDP ; std::basic_string<char,std::char_traits<char>,std::allocator<char> >::~basic_string<char,std::char_traits<char>,std::allocator<char> >
_TEXT	ENDS
PUBLIC	?_Grow@?$basic_string@DU?$char_traits@D@std@@V?$allocator@D@2@@std@@IAE_NI_N@Z ; std::basic_string<char,std::char_traits<char>,std::allocator<char> >::_Grow
EXTRN	?_Xlen@_String_base@std@@SAXXZ:PROC		; std::_String_base::_Xlen
; Function compile flags: /Ogtpy
;	COMDAT ?_Grow@?$basic_string@DU?$char_traits@D@std@@V?$allocator@D@2@@std@@IAE_NI_N@Z
_TEXT	SEGMENT
__Newsize$ = 8						; size = 4
__Trim$ = 12						; size = 1
?_Grow@?$basic_string@DU?$char_traits@D@std@@V?$allocator@D@2@@std@@IAE_NI_N@Z PROC ; std::basic_string<char,std::char_traits<char>,std::allocator<char> >::_Grow, COMDAT
; _this$ = ecx

; 1998 : 		{	// ensure buffer is big enough, trim to size if _Trim is true

	push	ebx

; 1999 : 			if (max_size() < _Newsize)

	mov	ebx, DWORD PTR __Newsize$[esp]
	cmp	ebx, -2					; fffffffeH
	push	esi
	mov	esi, ecx
	jbe	SHORT $LN6@Grow

; 2000 : 			_String_base::_Xlen();	// result too long

	call	?_Xlen@_String_base@std@@SAXXZ		; std::_String_base::_Xlen
$LN6@Grow:

; 2001 : 		if (_Myres < _Newsize)

	mov	eax, DWORD PTR [esi+24]
	cmp	eax, ebx
	jae	SHORT $LN5@Grow

; 2002 : 			_Copy(_Newsize, _Mysize);	// reallocate to grow

	mov	eax, DWORD PTR [esi+20]
	push	eax
	push	ebx
	mov	ecx, esi
	call	?_Copy@?$basic_string@DU?$char_traits@D@std@@V?$allocator@D@2@@std@@IAEXII@Z ; std::basic_string<char,std::char_traits<char>,std::allocator<char> >::_Copy

; 2008 : 		return (0 < _Newsize);	// return true only if more work to do

	xor	ecx, ecx
	cmp	ecx, ebx
	sbb	eax, eax
	pop	esi
	neg	eax
	pop	ebx

; 2009 : 		}

	ret	8
$LN5@Grow:

; 2003 : 		else if (_Trim && _Newsize < _BUF_SIZE)

	cmp	BYTE PTR __Trim$[esp+4], 0
	je	SHORT $LN3@Grow
	cmp	ebx, 16					; 00000010H
	jae	SHORT $LN3@Grow
	push	edi

; 2004 : 			_Tidy(true,	// copy and deallocate if trimming to small string
; 2005 : 				_Newsize < _Mysize ? _Newsize : _Mysize);

	mov	edi, DWORD PTR [esi+20]
	cmp	ebx, edi
	jae	SHORT $LN9@Grow
	mov	edi, ebx
$LN9@Grow:
	cmp	eax, 16					; 00000010H
	jb	SHORT $LN33@Grow
	test	edi, edi
	lea	eax, DWORD PTR [esi+4]
	push	ebp
	mov	ebp, DWORD PTR [eax]
	jbe	SHORT $LN31@Grow
	push	edi
	push	ebp
	push	16					; 00000010H
	push	eax
	call	_memcpy_s
	add	esp, 16					; 00000010H
$LN31@Grow:
	push	ebp
	call	??3@YAXPAX@Z				; operator delete
	add	esp, 4
	pop	ebp
$LN33@Grow:
	mov	DWORD PTR [esi+20], edi
	mov	DWORD PTR [esi+24], 15			; 0000000fH

; 2008 : 		return (0 < _Newsize);	// return true only if more work to do

	xor	ecx, ecx
	mov	BYTE PTR [esi+edi+4], 0
	cmp	ecx, ebx
	pop	edi
	sbb	eax, eax
	pop	esi
	neg	eax
	pop	ebx

; 2009 : 		}

	ret	8
$LN3@Grow:

; 2006 : 		else if (_Newsize == 0)

	test	ebx, ebx
	jne	SHORT $LN49@Grow

; 2007 : 			_Eos(0);	// new size is zero, just null terminate

	cmp	eax, 16					; 00000010H
	mov	DWORD PTR [esi+20], ebx
	jb	SHORT $LN47@Grow
	mov	esi, DWORD PTR [esi+4]

; 2008 : 		return (0 < _Newsize);	// return true only if more work to do

	xor	ecx, ecx
	cmp	ecx, ebx
	mov	BYTE PTR [esi], bl
	sbb	eax, eax
	pop	esi
	neg	eax
	pop	ebx

; 2009 : 		}

	ret	8

; 2007 : 			_Eos(0);	// new size is zero, just null terminate

$LN47@Grow:
	add	esi, 4
	mov	BYTE PTR [esi], 0
$LN49@Grow:

; 2008 : 		return (0 < _Newsize);	// return true only if more work to do

	xor	ecx, ecx
	cmp	ecx, ebx
	sbb	eax, eax
	pop	esi
	neg	eax
	pop	ebx

; 2009 : 		}

	ret	8
?_Grow@?$basic_string@DU?$char_traits@D@std@@V?$allocator@D@2@@std@@IAE_NI_N@Z ENDP ; std::basic_string<char,std::char_traits<char>,std::allocator<char> >::_Grow
_TEXT	ENDS
PUBLIC	??_7runtime_error@std@@6B@			; std::runtime_error::`vftable'
PUBLIC	??1runtime_error@std@@UAE@XZ			; std::runtime_error::~runtime_error
PUBLIC	??_R4runtime_error@std@@6B@			; std::runtime_error::`RTTI Complete Object Locator'
PUBLIC	??_R0?AVruntime_error@std@@@8			; std::runtime_error `RTTI Type Descriptor'
PUBLIC	??_R3runtime_error@std@@8			; std::runtime_error::`RTTI Class Hierarchy Descriptor'
PUBLIC	??_R2runtime_error@std@@8			; std::runtime_error::`RTTI Base Class Array'
PUBLIC	??_R1A@?0A@EA@runtime_error@std@@8		; std::runtime_error::`RTTI Base Class Descriptor at (0,-1,0,64)'
PUBLIC	?what@runtime_error@std@@UBEPBDXZ		; std::runtime_error::what
EXTRN	??_Eruntime_error@std@@UAEPAXI@Z:PROC		; std::runtime_error::`vector deleting destructor'
;	COMDAT ??_R1A@?0A@EA@runtime_error@std@@8
; File c:\program files\microsoft visual studio 8\vc\include\iosfwd
rdata$r	SEGMENT
??_R1A@?0A@EA@runtime_error@std@@8 DD FLAT:??_R0?AVruntime_error@std@@@8 ; std::runtime_error::`RTTI Base Class Descriptor at (0,-1,0,64)'
	DD	01H
	DD	00H
	DD	0ffffffffH
	DD	00H
	DD	040H
	DD	FLAT:??_R3runtime_error@std@@8
rdata$r	ENDS
;	COMDAT ??_R2runtime_error@std@@8
rdata$r	SEGMENT
??_R2runtime_error@std@@8 DD FLAT:??_R1A@?0A@EA@runtime_error@std@@8 ; std::runtime_error::`RTTI Base Class Array'
	DD	FLAT:??_R1A@?0A@EA@exception@std@@8
rdata$r	ENDS
;	COMDAT ??_R3runtime_error@std@@8
rdata$r	SEGMENT
??_R3runtime_error@std@@8 DD 00H			; std::runtime_error::`RTTI Class Hierarchy Descriptor'
	DD	00H
	DD	02H
	DD	FLAT:??_R2runtime_error@std@@8
rdata$r	ENDS
;	COMDAT ??_R0?AVruntime_error@std@@@8
_DATA	SEGMENT
??_R0?AVruntime_error@std@@@8 DD FLAT:??_7type_info@@6B@ ; std::runtime_error `RTTI Type Descriptor'
	DD	00H
	DB	'.?AVruntime_error@std@@', 00H
_DATA	ENDS
;	COMDAT ??_R4runtime_error@std@@6B@
rdata$r	SEGMENT
??_R4runtime_error@std@@6B@ DD 00H			; std::runtime_error::`RTTI Complete Object Locator'
	DD	00H
	DD	00H
	DD	FLAT:??_R0?AVruntime_error@std@@@8
	DD	FLAT:??_R3runtime_error@std@@8
rdata$r	ENDS
;	COMDAT ??_7runtime_error@std@@6B@
CONST	SEGMENT
??_7runtime_error@std@@6B@ DD FLAT:??_R4runtime_error@std@@6B@ ; std::runtime_error::`vftable'
	DD	FLAT:??_Eruntime_error@std@@UAEPAXI@Z
	DD	FLAT:?what@runtime_error@std@@UBEPBDXZ
; Function compile flags: /Ogtpy
; File c:\program files\microsoft visual studio 8\vc\include\stdexcept
CONST	ENDS
;	COMDAT ??1runtime_error@std@@UAE@XZ
_TEXT	SEGMENT
??1runtime_error@std@@UAE@XZ PROC			; std::runtime_error::~runtime_error, COMDAT
; _this$ = ecx

; 158  : 		{	// destroy the object

	push	esi
	mov	esi, ecx
	mov	DWORD PTR [esi], OFFSET ??_7runtime_error@std@@6B@

; 159  : 		}

	cmp	DWORD PTR [esi+36], 16			; 00000010H
	jb	SHORT $LN19@runtime_er
	mov	eax, DWORD PTR [esi+16]
	push	eax
	call	??3@YAXPAX@Z				; operator delete
	add	esp, 4
$LN19@runtime_er:
	xor	eax, eax
	mov	DWORD PTR [esi+36], 15			; 0000000fH
	mov	DWORD PTR [esi+32], eax
	mov	BYTE PTR [esi+16], al
	mov	ecx, esi
	pop	esi
	jmp	??1exception@std@@UAE@XZ		; std::exception::~exception
??1runtime_error@std@@UAE@XZ ENDP			; std::runtime_error::~runtime_error
_TEXT	ENDS
PUBLIC	?c_str@?$basic_string@DU?$char_traits@D@std@@V?$allocator@D@2@@std@@QBEPBDXZ ; std::basic_string<char,std::char_traits<char>,std::allocator<char> >::c_str
; Function compile flags: /Ogtpy
; File c:\program files\microsoft visual studio 8\vc\include\xstring
;	COMDAT ?c_str@?$basic_string@DU?$char_traits@D@std@@V?$allocator@D@2@@std@@QBEPBDXZ
_TEXT	SEGMENT
?c_str@?$basic_string@DU?$char_traits@D@std@@V?$allocator@D@2@@std@@QBEPBDXZ PROC ; std::basic_string<char,std::char_traits<char>,std::allocator<char> >::c_str, COMDAT
; _this$ = ecx

; 1584 : 		return (_Myptr());

	cmp	DWORD PTR [ecx+24], 16			; 00000010H
	jb	SHORT $LN5@c_str
	mov	eax, DWORD PTR [ecx+4]

; 1585 : 		}

	ret	0

; 1584 : 		return (_Myptr());

$LN5@c_str:
	lea	eax, DWORD PTR [ecx+4]

; 1585 : 		}

	ret	0
?c_str@?$basic_string@DU?$char_traits@D@std@@V?$allocator@D@2@@std@@QBEPBDXZ ENDP ; std::basic_string<char,std::char_traits<char>,std::allocator<char> >::c_str
; Function compile flags: /Ogtpy
; File c:\program files\microsoft visual studio 8\vc\include\stdexcept
_TEXT	ENDS
;	COMDAT ?what@runtime_error@std@@UBEPBDXZ
_TEXT	SEGMENT
?what@runtime_error@std@@UBEPBDXZ PROC			; std::runtime_error::what, COMDAT
; _this$ = ecx

; 163  : 		return (_Str.c_str());

	cmp	DWORD PTR [ecx+36], 16			; 00000010H
	jb	SHORT $LN7@what
	mov	eax, DWORD PTR [ecx+16]

; 164  : 		}

	ret	0

; 163  : 		return (_Str.c_str());

$LN7@what:
	lea	eax, DWORD PTR [ecx+16]

; 164  : 		}

	ret	0
?what@runtime_error@std@@UBEPBDXZ ENDP			; std::runtime_error::what
; Function compile flags: /Ogtpy
_TEXT	ENDS
;	COMDAT ??_Gruntime_error@std@@UAEPAXI@Z
_TEXT	SEGMENT
___flags$ = 8						; size = 4
??_Gruntime_error@std@@UAEPAXI@Z PROC			; std::runtime_error::`scalar deleting destructor', COMDAT
; _this$ = ecx
	push	esi
	mov	esi, ecx
	mov	DWORD PTR [esi], OFFSET ??_7runtime_error@std@@6B@
	cmp	DWORD PTR [esi+36], 16			; 00000010H
	jb	SHORT $LN22@scalar@4
	mov	eax, DWORD PTR [esi+16]
	push	eax
	call	??3@YAXPAX@Z				; operator delete
	add	esp, 4
$LN22@scalar@4:
	xor	eax, eax
	mov	DWORD PTR [esi+36], 15			; 0000000fH
	mov	DWORD PTR [esi+32], eax
	mov	ecx, esi
	mov	BYTE PTR [esi+16], al
	call	??1exception@std@@UAE@XZ		; std::exception::~exception
	test	BYTE PTR ___flags$[esp], 1
	je	SHORT $LN32@scalar@4
	push	esi
	call	??3@YAXPAX@Z				; operator delete
	add	esp, 4
$LN32@scalar@4:
	mov	eax, esi
	pop	esi
	ret	4
??_Gruntime_error@std@@UAEPAXI@Z ENDP			; std::runtime_error::`scalar deleting destructor'
_TEXT	ENDS
PUBLIC	??1_Locinfo@std@@QAE@XZ				; std::_Locinfo::~_Locinfo
EXTRN	?_Locinfo_dtor@_Locinfo@std@@SAXPAV12@@Z:PROC	; std::_Locinfo::_Locinfo_dtor
;	COMDAT xdata$x
; File c:\program files\microsoft visual studio 8\vc\include\iosfwd
xdata$x	SEGMENT
__ehfuncinfo$??1_Locinfo@std@@QAE@XZ DD 019930522H
	DD	05H
	DD	FLAT:__unwindtable$??1_Locinfo@std@@QAE@XZ
	DD	2 DUP(00H)
	DD	2 DUP(00H)
	DD	00H
	DD	01H
__unwindtable$??1_Locinfo@std@@QAE@XZ DD 0ffffffffH
	DD	FLAT:__unwindfunclet$??1_Locinfo@std@@QAE@XZ$0
	DD	00H
	DD	FLAT:__unwindfunclet$??1_Locinfo@std@@QAE@XZ$1
	DD	01H
	DD	FLAT:__unwindfunclet$??1_Locinfo@std@@QAE@XZ$2
	DD	02H
	DD	FLAT:__unwindfunclet$??1_Locinfo@std@@QAE@XZ$3
	DD	03H
	DD	FLAT:__unwindfunclet$??1_Locinfo@std@@QAE@XZ$4
; Function compile flags: /Ogtpy
; File c:\program files\microsoft visual studio 8\vc\include\xlocinfo
xdata$x	ENDS
;	COMDAT ??1_Locinfo@std@@QAE@XZ
_TEXT	SEGMENT
_this$ = -16						; size = 4
__$EHRec$ = -12						; size = 12
??1_Locinfo@std@@QAE@XZ PROC				; std::_Locinfo::~_Locinfo, COMDAT
; _this$ = ecx

; 92   :         {

	push	-1
	push	__ehhandler$??1_Locinfo@std@@QAE@XZ
	mov	eax, DWORD PTR fs:0
	push	eax
	push	ecx
	push	ebx
	push	ebp
	push	esi
	push	edi
	mov	eax, DWORD PTR ___security_cookie
	xor	eax, esp
	push	eax
	lea	eax, DWORD PTR __$EHRec$[esp+36]
	mov	DWORD PTR fs:0, eax
	mov	esi, ecx
	mov	DWORD PTR _this$[esp+36], esi

; 93   :         _Locinfo_dtor(this);

	push	esi
	mov	DWORD PTR __$EHRec$[esp+48], 4
	call	?_Locinfo_dtor@_Locinfo@std@@SAXPAV12@@Z ; std::_Locinfo::_Locinfo_dtor

; 94   :         }

	mov	ebp, 16					; 00000010H
	add	esp, 4
	cmp	DWORD PTR [esi+112], ebp
	jb	SHORT $LN24@Locinfo
	mov	eax, DWORD PTR [esi+92]
	push	eax
	call	??3@YAXPAX@Z				; operator delete
	add	esp, 4
$LN24@Locinfo:
	xor	ebx, ebx
	mov	edi, 15					; 0000000fH
	mov	DWORD PTR [esi+112], edi
	mov	DWORD PTR [esi+108], ebx
	mov	BYTE PTR [esi+92], bl
	cmp	DWORD PTR [esi+84], ebp
	jb	SHORT $LN50@Locinfo
	mov	eax, DWORD PTR [esi+64]
	push	eax
	call	??3@YAXPAX@Z				; operator delete
	add	esp, 4
$LN50@Locinfo:
	mov	DWORD PTR [esi+84], edi
	mov	DWORD PTR [esi+80], ebx
	mov	BYTE PTR [esi+64], bl
	cmp	DWORD PTR [esi+56], ebp
	jb	SHORT $LN76@Locinfo
	mov	eax, DWORD PTR [esi+36]
	push	eax
	call	??3@YAXPAX@Z				; operator delete
	add	esp, 4
$LN76@Locinfo:
	mov	DWORD PTR [esi+56], edi
	mov	DWORD PTR [esi+52], ebx
	mov	BYTE PTR [esi+36], bl
	cmp	DWORD PTR [esi+28], ebp
	jb	SHORT $LN102@Locinfo
	mov	eax, DWORD PTR [esi+8]
	push	eax
	call	??3@YAXPAX@Z				; operator delete
	add	esp, 4
$LN102@Locinfo:
	mov	DWORD PTR [esi+28], edi
	mov	DWORD PTR [esi+24], ebx
	mov	ecx, esi
	mov	BYTE PTR [esi+8], bl
	mov	DWORD PTR __$EHRec$[esp+44], -1
	call	??1_Lockit@std@@QAE@XZ			; std::_Lockit::~_Lockit
	mov	ecx, DWORD PTR __$EHRec$[esp+36]
	mov	DWORD PTR fs:0, ecx
	pop	ecx
	pop	edi
	pop	esi
	pop	ebp
	pop	ebx
	add	esp, 16					; 00000010H
	ret	0
_TEXT	ENDS
;	COMDAT text$x
text$x	SEGMENT
__unwindfunclet$??1_Locinfo@std@@QAE@XZ$0:
	mov	ecx, DWORD PTR _this$[ebp]
	jmp	??1_Lockit@std@@QAE@XZ			; std::_Lockit::~_Lockit
__unwindfunclet$??1_Locinfo@std@@QAE@XZ$1:
	mov	ecx, DWORD PTR _this$[ebp]
	add	ecx, 4
	jmp	??1?$basic_string@DU?$char_traits@D@std@@V?$allocator@D@2@@std@@QAE@XZ ; std::basic_string<char,std::char_traits<char>,std::allocator<char> >::~basic_string<char,std::char_traits<char>,std::allocator<char> >
__unwindfunclet$??1_Locinfo@std@@QAE@XZ$2:
	mov	ecx, DWORD PTR _this$[ebp]
	add	ecx, 32					; 00000020H
	jmp	??1?$basic_string@DU?$char_traits@D@std@@V?$allocator@D@2@@std@@QAE@XZ ; std::basic_string<char,std::char_traits<char>,std::allocator<char> >::~basic_string<char,std::char_traits<char>,std::allocator<char> >
__unwindfunclet$??1_Locinfo@std@@QAE@XZ$3:
	mov	ecx, DWORD PTR _this$[ebp]
	add	ecx, 60					; 0000003cH
	jmp	??1?$basic_string@DU?$char_traits@D@std@@V?$allocator@D@2@@std@@QAE@XZ ; std::basic_string<char,std::char_traits<char>,std::allocator<char> >::~basic_string<char,std::char_traits<char>,std::allocator<char> >
__unwindfunclet$??1_Locinfo@std@@QAE@XZ$4:
	mov	ecx, DWORD PTR _this$[ebp]
	add	ecx, 88					; 00000058H
	jmp	??1?$basic_string@DU?$char_traits@D@std@@V?$allocator@D@2@@std@@QAE@XZ ; std::basic_string<char,std::char_traits<char>,std::allocator<char> >::~basic_string<char,std::char_traits<char>,std::allocator<char> >
__ehhandler$??1_Locinfo@std@@QAE@XZ:
	mov	edx, DWORD PTR [esp+8]
	lea	eax, DWORD PTR [edx-20]
	mov	ecx, DWORD PTR [edx-24]
	xor	ecx, eax
	call	@__security_check_cookie@4
	mov	eax, OFFSET __ehfuncinfo$??1_Locinfo@std@@QAE@XZ
	jmp	___CxxFrameHandler3
text$x	ENDS
??1_Locinfo@std@@QAE@XZ ENDP				; std::_Locinfo::~_Locinfo
PUBLIC	?assign@?$basic_string@DU?$char_traits@D@std@@V?$allocator@D@2@@std@@QAEAAV12@ABV12@II@Z ; std::basic_string<char,std::char_traits<char>,std::allocator<char> >::assign
; Function compile flags: /Ogtpy
; File c:\program files\microsoft visual studio 8\vc\include\xstring
;	COMDAT ?assign@?$basic_string@DU?$char_traits@D@std@@V?$allocator@D@2@@std@@QAEAAV12@ABV12@II@Z
_TEXT	SEGMENT
__Right$ = 8						; size = 4
__Roff$ = 12						; size = 4
__Count$ = 16						; size = 4
?assign@?$basic_string@DU?$char_traits@D@std@@V?$allocator@D@2@@std@@QAEAAV12@ABV12@II@Z PROC ; std::basic_string<char,std::char_traits<char>,std::allocator<char> >::assign, COMDAT
; _this$ = ecx

; 1000 : 		{	// assign _Right [_Roff, _Roff + _Count)

	push	ebx

; 1001 : 		if (_Right.size() < _Roff)

	mov	ebx, DWORD PTR __Right$[esp]
	push	ebp
	mov	ebp, DWORD PTR __Roff$[esp+4]
	cmp	DWORD PTR [ebx+20], ebp
	push	esi
	push	edi
	mov	esi, ecx
	jae	SHORT $LN5@assign

; 1002 : 			_String_base::_Xran();	// _Roff off end

	call	?_Xran@_String_base@std@@SAXXZ		; std::_String_base::_Xran
$LN5@assign:

; 1003 : 		size_type _Num = _Right.size() - _Roff;

	mov	edi, DWORD PTR [ebx+20]

; 1004 : 		if (_Count < _Num)

	mov	eax, DWORD PTR __Count$[esp+12]
	sub	edi, ebp
	cmp	eax, edi
	jae	SHORT $LN4@assign

; 1005 : 			_Num = _Count;	// trim _Num to size

	mov	edi, eax
$LN4@assign:

; 1006 : 
; 1007 : 		if (this == &_Right)

	cmp	esi, ebx
	jne	SHORT $LN3@assign

; 1008 : 			erase((size_type)(_Roff + _Num)), erase(0, _Roff);	// substring

	push	-1
	add	edi, ebp
	push	edi
	mov	ecx, esi
	call	?erase@?$basic_string@DU?$char_traits@D@std@@V?$allocator@D@2@@std@@QAEAAV12@II@Z ; std::basic_string<char,std::char_traits<char>,std::allocator<char> >::erase
	push	ebp
	push	0
	mov	ecx, esi
	call	?erase@?$basic_string@DU?$char_traits@D@std@@V?$allocator@D@2@@std@@QAEAAV12@II@Z ; std::basic_string<char,std::char_traits<char>,std::allocator<char> >::erase
	pop	edi

; 1013 : 			}
; 1014 : 		return (*this);

	mov	eax, esi
	pop	esi
	pop	ebp
	pop	ebx

; 1015 : 		}

	ret	12					; 0000000cH
$LN3@assign:

; 1009 : 		else if (_Grow(_Num))

	cmp	edi, -2					; fffffffeH
	jbe	SHORT $LN17@assign
	call	?_Xlen@_String_base@std@@SAXXZ		; std::_String_base::_Xlen
$LN17@assign:
	mov	eax, DWORD PTR [esi+24]
	cmp	eax, edi
	jae	SHORT $LN16@assign
	mov	eax, DWORD PTR [esi+20]
	push	eax
	push	edi
	mov	ecx, esi
	call	?_Copy@?$basic_string@DU?$char_traits@D@std@@V?$allocator@D@2@@std@@IAEXII@Z ; std::basic_string<char,std::char_traits<char>,std::allocator<char> >::_Copy
	test	edi, edi
$LN87@assign:
	jbe	SHORT $LN86@assign

; 1010 : 			{	// make room and assign new stuff
; 1011 : 			_Traits_helper::copy_s<_Traits>(_Myptr(), _Myres, _Right._Myptr() + _Roff, _Num);

	cmp	DWORD PTR [ebx+24], 16			; 00000010H
	jb	SHORT $LN64@assign
	mov	edx, DWORD PTR [ebx+4]
	jmp	SHORT $LN65@assign

; 1009 : 		else if (_Grow(_Num))

$LN16@assign:
	test	edi, edi
	jne	SHORT $LN87@assign
	cmp	eax, 16					; 00000010H
	mov	DWORD PTR [esi+20], edi
	jb	SHORT $LN58@assign
	mov	eax, DWORD PTR [esi+4]
	pop	edi
	mov	BYTE PTR [eax], 0

; 1013 : 			}
; 1014 : 		return (*this);

	mov	eax, esi
	pop	esi
	pop	ebp
	pop	ebx

; 1015 : 		}

	ret	12					; 0000000cH

; 1009 : 		else if (_Grow(_Num))

$LN58@assign:
	lea	eax, DWORD PTR [esi+4]
	pop	edi
	mov	BYTE PTR [eax], 0

; 1013 : 			}
; 1014 : 		return (*this);

	mov	eax, esi
	pop	esi
	pop	ebp
	pop	ebx

; 1015 : 		}

	ret	12					; 0000000cH

; 1010 : 			{	// make room and assign new stuff
; 1011 : 			_Traits_helper::copy_s<_Traits>(_Myptr(), _Myres, _Right._Myptr() + _Roff, _Num);

$LN64@assign:
	lea	edx, DWORD PTR [ebx+4]
$LN65@assign:
	mov	ecx, DWORD PTR [esi+24]
	cmp	ecx, 16					; 00000010H
	lea	ebx, DWORD PTR [esi+4]
	jb	SHORT $LN68@assign
	mov	eax, DWORD PTR [ebx]
	jmp	SHORT $LN69@assign
$LN68@assign:
	mov	eax, ebx
$LN69@assign:
	push	edi
	add	edx, ebp
	push	edx
	push	ecx
	push	eax
	call	_memcpy_s
	add	esp, 16					; 00000010H

; 1012 : 			_Eos(_Num);

	cmp	DWORD PTR [esi+24], 16			; 00000010H
	mov	DWORD PTR [esi+20], edi
	jb	SHORT $LN82@assign
	mov	ebx, DWORD PTR [ebx]
$LN82@assign:
	mov	BYTE PTR [ebx+edi], 0
$LN86@assign:
	pop	edi

; 1013 : 			}
; 1014 : 		return (*this);

	mov	eax, esi
	pop	esi
	pop	ebp
	pop	ebx

; 1015 : 		}

	ret	12					; 0000000cH
?assign@?$basic_string@DU?$char_traits@D@std@@V?$allocator@D@2@@std@@QAEAAV12@ABV12@II@Z ENDP ; std::basic_string<char,std::char_traits<char>,std::allocator<char> >::assign
_TEXT	ENDS
PUBLIC	?assign@?$basic_string@DU?$char_traits@D@std@@V?$allocator@D@2@@std@@QAEAAV12@PBDI@Z ; std::basic_string<char,std::char_traits<char>,std::allocator<char> >::assign
; Function compile flags: /Ogtpy
;	COMDAT ?assign@?$basic_string@DU?$char_traits@D@std@@V?$allocator@D@2@@std@@QAEAAV12@PBDI@Z
_TEXT	SEGMENT
__Ptr$ = 8						; size = 4
__Num$ = 12						; size = 4
?assign@?$basic_string@DU?$char_traits@D@std@@V?$allocator@D@2@@std@@QAEAAV12@PBDI@Z PROC ; std::basic_string<char,std::char_traits<char>,std::allocator<char> >::assign, COMDAT
; _this$ = ecx

; 1018 : 		{	// assign [_Ptr, _Ptr + _Num)

	push	ebx
	push	ebp
	push	esi
	mov	esi, ecx

; 1019 : 		if (_Inside(_Ptr))

	mov	ecx, DWORD PTR [esi+24]
	cmp	ecx, 16					; 00000010H
	lea	ebx, DWORD PTR [esi+4]
	jb	SHORT $LN12@assign@2
	mov	eax, DWORD PTR [ebx]
	jmp	SHORT $LN13@assign@2
$LN12@assign@2:
	mov	eax, ebx
$LN13@assign@2:
	mov	ebp, DWORD PTR __Ptr$[esp+8]
	cmp	ebp, eax
	jb	SHORT $LN2@assign@2
	cmp	ecx, 16					; 00000010H
	jb	SHORT $LN16@assign@2
	mov	eax, DWORD PTR [ebx]
	jmp	SHORT $LN17@assign@2
$LN16@assign@2:
	mov	eax, ebx
$LN17@assign@2:
	mov	edx, DWORD PTR [esi+20]
	add	edx, eax
	cmp	edx, ebp
	jbe	SHORT $LN2@assign@2

; 1020 : 			return (assign(*this, _Ptr - _Myptr(), _Num));	// substring

	cmp	ecx, 16					; 00000010H
	jb	SHORT $LN20@assign@2
	mov	ebx, DWORD PTR [ebx]
$LN20@assign@2:
	mov	eax, DWORD PTR __Num$[esp+8]
	push	eax
	sub	ebp, ebx
	push	ebp
	push	esi
	mov	ecx, esi
	call	?assign@?$basic_string@DU?$char_traits@D@std@@V?$allocator@D@2@@std@@QAEAAV12@ABV12@II@Z ; std::basic_string<char,std::char_traits<char>,std::allocator<char> >::assign
	pop	esi
	pop	ebp
	pop	ebx

; 1028 : 		}

	ret	8
$LN2@assign@2:
	push	edi

; 1021 : 
; 1022 : 		if (_Grow(_Num))

	mov	edi, DWORD PTR __Num$[esp+12]
	cmp	edi, -2					; fffffffeH
	jbe	SHORT $LN27@assign@2
	call	?_Xlen@_String_base@std@@SAXXZ		; std::_String_base::_Xlen
$LN27@assign@2:
	mov	eax, DWORD PTR [esi+24]
	cmp	eax, edi
	jae	SHORT $LN26@assign@2
	mov	ecx, DWORD PTR [esi+20]
	push	ecx
	push	edi
	mov	ecx, esi
	call	?_Copy@?$basic_string@DU?$char_traits@D@std@@V?$allocator@D@2@@std@@IAEXII@Z ; std::basic_string<char,std::char_traits<char>,std::allocator<char> >::_Copy
	test	edi, edi
$LN93@assign@2:
	jbe	SHORT $LN90@assign@2

; 1023 : 			{	// make room and assign new stuff
; 1024 : 			_Traits_helper::copy_s<_Traits>(_Myptr(), _Myres, _Ptr, _Num);

	mov	ecx, DWORD PTR [esi+24]
	cmp	ecx, 16					; 00000010H
	jb	SHORT $LN74@assign@2
	mov	eax, DWORD PTR [ebx]
	jmp	SHORT $LN75@assign@2

; 1021 : 
; 1022 : 		if (_Grow(_Num))

$LN26@assign@2:
	test	edi, edi
	jne	SHORT $LN93@assign@2
	cmp	eax, 16					; 00000010H
	mov	DWORD PTR [esi+20], edi
	jb	SHORT $LN68@assign@2
	mov	ebx, DWORD PTR [ebx]
$LN68@assign@2:
	pop	edi

; 1026 : 			}
; 1027 : 		return (*this);

	mov	eax, esi
	pop	esi
	pop	ebp
	mov	BYTE PTR [ebx], 0
	pop	ebx

; 1028 : 		}

	ret	8

; 1023 : 			{	// make room and assign new stuff
; 1024 : 			_Traits_helper::copy_s<_Traits>(_Myptr(), _Myres, _Ptr, _Num);

$LN74@assign@2:
	mov	eax, ebx
$LN75@assign@2:
	push	edi
	push	ebp
	push	ecx
	push	eax
	call	_memcpy_s
	add	esp, 16					; 00000010H

; 1025 : 			_Eos(_Num);

	cmp	DWORD PTR [esi+24], 16			; 00000010H
	mov	DWORD PTR [esi+20], edi
	jb	SHORT $LN88@assign@2
	mov	ebx, DWORD PTR [ebx]
$LN88@assign@2:
	mov	BYTE PTR [ebx+edi], 0
$LN90@assign@2:
	pop	edi

; 1026 : 			}
; 1027 : 		return (*this);

	mov	eax, esi
	pop	esi
	pop	ebp
	pop	ebx

; 1028 : 		}

	ret	8
?assign@?$basic_string@DU?$char_traits@D@std@@V?$allocator@D@2@@std@@QAEAAV12@PBDI@Z ENDP ; std::basic_string<char,std::char_traits<char>,std::allocator<char> >::assign
_TEXT	ENDS
PUBLIC	??0?$basic_string@DU?$char_traits@D@std@@V?$allocator@D@2@@std@@QAE@ABV01@@Z ; std::basic_string<char,std::char_traits<char>,std::allocator<char> >::basic_string<char,std::char_traits<char>,std::allocator<char> >
; Function compile flags: /Ogtpy
;	COMDAT ??0?$basic_string@DU?$char_traits@D@std@@V?$allocator@D@2@@std@@QAE@ABV01@@Z
_TEXT	SEGMENT
__Right$ = 8						; size = 4
??0?$basic_string@DU?$char_traits@D@std@@V?$allocator@D@2@@std@@QAE@ABV01@@Z PROC ; std::basic_string<char,std::char_traits<char>,std::allocator<char> >::basic_string<char,std::char_traits<char>,std::allocator<char> >, COMDAT
; _this$ = ecx

; 594  : 		{	// construct by copying _Right

	push	esi

; 595  : 		_Tidy();

	xor	eax, eax
	mov	esi, ecx

; 596  : 		assign(_Right, 0, npos);

	push	-1
	mov	DWORD PTR [esi+20], eax
	mov	DWORD PTR [esi+24], 15			; 0000000fH
	push	eax
	mov	BYTE PTR [esi+4], al
	mov	eax, DWORD PTR __Right$[esp+8]
	push	eax
	call	?assign@?$basic_string@DU?$char_traits@D@std@@V?$allocator@D@2@@std@@QAEAAV12@ABV12@II@Z ; std::basic_string<char,std::char_traits<char>,std::allocator<char> >::assign

; 597  : 		}

	mov	eax, esi
	pop	esi
	ret	4
??0?$basic_string@DU?$char_traits@D@std@@V?$allocator@D@2@@std@@QAE@ABV01@@Z ENDP ; std::basic_string<char,std::char_traits<char>,std::allocator<char> >::basic_string<char,std::char_traits<char>,std::allocator<char> >
_TEXT	ENDS
PUBLIC	?assign@?$basic_string@DU?$char_traits@D@std@@V?$allocator@D@2@@std@@QAEAAV12@PBD@Z ; std::basic_string<char,std::char_traits<char>,std::allocator<char> >::assign
; Function compile flags: /Ogtpy
;	COMDAT ?assign@?$basic_string@DU?$char_traits@D@std@@V?$allocator@D@2@@std@@QAEAAV12@PBD@Z
_TEXT	SEGMENT
__Ptr$ = 8						; size = 4
?assign@?$basic_string@DU?$char_traits@D@std@@V?$allocator@D@2@@std@@QAEAAV12@PBD@Z PROC ; std::basic_string<char,std::char_traits<char>,std::allocator<char> >::assign, COMDAT
; _this$ = ecx

; 1031 : 		{	// assign [_Ptr, <null>)

	push	esi

; 1032 : 		return (assign(_Ptr, _Traits::length(_Ptr)));

	mov	esi, DWORD PTR __Ptr$[esp]
	mov	eax, esi
	push	edi
	lea	edi, DWORD PTR [eax+1]
	npad	5
$LL5@assign@3:
	mov	dl, BYTE PTR [eax]
	add	eax, 1
	test	dl, dl
	jne	SHORT $LL5@assign@3
	sub	eax, edi
	push	eax
	push	esi
	call	?assign@?$basic_string@DU?$char_traits@D@std@@V?$allocator@D@2@@std@@QAEAAV12@PBDI@Z ; std::basic_string<char,std::char_traits<char>,std::allocator<char> >::assign
	pop	edi
	pop	esi

; 1033 : 		}

	ret	4
?assign@?$basic_string@DU?$char_traits@D@std@@V?$allocator@D@2@@std@@QAEAAV12@PBD@Z ENDP ; std::basic_string<char,std::char_traits<char>,std::allocator<char> >::assign
_TEXT	ENDS
PUBLIC	??0runtime_error@std@@QAE@ABV?$basic_string@DU?$char_traits@D@std@@V?$allocator@D@2@@1@@Z ; std::runtime_error::runtime_error
EXTRN	??0exception@std@@QAE@XZ:PROC			; std::exception::exception
;	COMDAT xdata$x
; File c:\program files\microsoft visual studio 8\vc\include\iosfwd
xdata$x	SEGMENT
__unwindtable$??0runtime_error@std@@QAE@ABV?$basic_string@DU?$char_traits@D@std@@V?$allocator@D@2@@1@@Z DD 0ffffffffH
	DD	FLAT:__unwindfunclet$??0runtime_error@std@@QAE@ABV?$basic_string@DU?$char_traits@D@std@@V?$allocator@D@2@@1@@Z$0
__ehfuncinfo$??0runtime_error@std@@QAE@ABV?$basic_string@DU?$char_traits@D@std@@V?$allocator@D@2@@1@@Z DD 019930522H
	DD	01H
	DD	FLAT:__unwindtable$??0runtime_error@std@@QAE@ABV?$basic_string@DU?$char_traits@D@std@@V?$allocator@D@2@@1@@Z
	DD	2 DUP(00H)
	DD	2 DUP(00H)
	DD	00H
	DD	01H
; Function compile flags: /Ogtpy
; File c:\program files\microsoft visual studio 8\vc\include\stdexcept
xdata$x	ENDS
;	COMDAT ??0runtime_error@std@@QAE@ABV?$basic_string@DU?$char_traits@D@std@@V?$allocator@D@2@@1@@Z
_TEXT	SEGMENT
_this$ = -16						; size = 4
__$EHRec$ = -12						; size = 12
__Message$ = 8						; size = 4
??0runtime_error@std@@QAE@ABV?$basic_string@DU?$char_traits@D@std@@V?$allocator@D@2@@1@@Z PROC ; std::runtime_error::runtime_error, COMDAT
; _this$ = ecx

; 154  : 		{	// construct from message string

	push	-1
	push	__ehhandler$??0runtime_error@std@@QAE@ABV?$basic_string@DU?$char_traits@D@std@@V?$allocator@D@2@@1@@Z
	mov	eax, DWORD PTR fs:0
	push	eax
	push	ecx
	push	esi
	mov	eax, DWORD PTR ___security_cookie
	xor	eax, esp
	push	eax
	lea	eax, DWORD PTR __$EHRec$[esp+24]
	mov	DWORD PTR fs:0, eax
	mov	esi, ecx
	mov	DWORD PTR _this$[esp+24], esi
	call	??0exception@std@@QAE@XZ		; std::exception::exception
	xor	eax, eax
	lea	ecx, DWORD PTR [esi+12]
	mov	DWORD PTR [esi], OFFSET ??_7runtime_error@std@@6B@
	push	-1
	mov	DWORD PTR [ecx+20], eax
	mov	DWORD PTR [ecx+24], 15			; 0000000fH
	push	eax
	mov	DWORD PTR __$EHRec$[esp+40], eax
	mov	BYTE PTR [ecx+4], al
	mov	eax, DWORD PTR __Message$[esp+28]
	push	eax
	call	?assign@?$basic_string@DU?$char_traits@D@std@@V?$allocator@D@2@@std@@QAEAAV12@ABV12@II@Z ; std::basic_string<char,std::char_traits<char>,std::allocator<char> >::assign

; 155  : 		}

	mov	eax, esi
	mov	ecx, DWORD PTR __$EHRec$[esp+24]
	mov	DWORD PTR fs:0, ecx
	pop	ecx
	pop	esi
	add	esp, 16					; 00000010H
	ret	4
_TEXT	ENDS
;	COMDAT text$x
text$x	SEGMENT
__unwindfunclet$??0runtime_error@std@@QAE@ABV?$basic_string@DU?$char_traits@D@std@@V?$allocator@D@2@@1@@Z$0:
	mov	ecx, DWORD PTR _this$[ebp]
	jmp	??1exception@std@@UAE@XZ		; std::exception::~exception
__ehhandler$??0runtime_error@std@@QAE@ABV?$basic_string@DU?$char_traits@D@std@@V?$allocator@D@2@@1@@Z:
	mov	edx, DWORD PTR [esp+8]
	lea	eax, DWORD PTR [edx-8]
	mov	ecx, DWORD PTR [edx-12]
	xor	ecx, eax
	call	@__security_check_cookie@4
	mov	eax, OFFSET __ehfuncinfo$??0runtime_error@std@@QAE@ABV?$basic_string@DU?$char_traits@D@std@@V?$allocator@D@2@@1@@Z
	jmp	___CxxFrameHandler3
text$x	ENDS
??0runtime_error@std@@QAE@ABV?$basic_string@DU?$char_traits@D@std@@V?$allocator@D@2@@1@@Z ENDP ; std::runtime_error::runtime_error
PUBLIC	??_7failure@ios_base@std@@6B@			; std::ios_base::failure::`vftable'
PUBLIC	??0failure@ios_base@std@@QAE@ABV?$basic_string@DU?$char_traits@D@std@@V?$allocator@D@2@@2@@Z ; std::ios_base::failure::failure
PUBLIC	??_R4failure@ios_base@std@@6B@			; std::ios_base::failure::`RTTI Complete Object Locator'
PUBLIC	??_R0?AVfailure@ios_base@std@@@8		; std::ios_base::failure `RTTI Type Descriptor'
PUBLIC	??_R3failure@ios_base@std@@8			; std::ios_base::failure::`RTTI Class Hierarchy Descriptor'
PUBLIC	??_R2failure@ios_base@std@@8			; std::ios_base::failure::`RTTI Base Class Array'
PUBLIC	??_R1A@?0A@EA@failure@ios_base@std@@8		; std::ios_base::failure::`RTTI Base Class Descriptor at (0,-1,0,64)'
EXTRN	??_Efailure@ios_base@std@@UAEPAXI@Z:PROC	; std::ios_base::failure::`vector deleting destructor'
;	COMDAT ??_R1A@?0A@EA@failure@ios_base@std@@8
; File c:\program files\microsoft visual studio 8\vc\include\xiosbase
rdata$r	SEGMENT
??_R1A@?0A@EA@failure@ios_base@std@@8 DD FLAT:??_R0?AVfailure@ios_base@std@@@8 ; std::ios_base::failure::`RTTI Base Class Descriptor at (0,-1,0,64)'
	DD	02H
	DD	00H
	DD	0ffffffffH
	DD	00H
	DD	040H
	DD	FLAT:??_R3failure@ios_base@std@@8
rdata$r	ENDS
;	COMDAT ??_R2failure@ios_base@std@@8
rdata$r	SEGMENT
??_R2failure@ios_base@std@@8 DD FLAT:??_R1A@?0A@EA@failure@ios_base@std@@8 ; std::ios_base::failure::`RTTI Base Class Array'
	DD	FLAT:??_R1A@?0A@EA@runtime_error@std@@8
	DD	FLAT:??_R1A@?0A@EA@exception@std@@8
rdata$r	ENDS
;	COMDAT ??_R3failure@ios_base@std@@8
rdata$r	SEGMENT
??_R3failure@ios_base@std@@8 DD 00H			; std::ios_base::failure::`RTTI Class Hierarchy Descriptor'
	DD	00H
	DD	03H
	DD	FLAT:??_R2failure@ios_base@std@@8
rdata$r	ENDS
;	COMDAT ??_R0?AVfailure@ios_base@std@@@8
_DATA	SEGMENT
??_R0?AVfailure@ios_base@std@@@8 DD FLAT:??_7type_info@@6B@ ; std::ios_base::failure `RTTI Type Descriptor'
	DD	00H
	DB	'.?AVfailure@ios_base@std@@', 00H
_DATA	ENDS
;	COMDAT ??_R4failure@ios_base@std@@6B@
rdata$r	SEGMENT
??_R4failure@ios_base@std@@6B@ DD 00H			; std::ios_base::failure::`RTTI Complete Object Locator'
	DD	00H
	DD	00H
	DD	FLAT:??_R0?AVfailure@ios_base@std@@@8
	DD	FLAT:??_R3failure@ios_base@std@@8
rdata$r	ENDS
;	COMDAT ??_7failure@ios_base@std@@6B@
CONST	SEGMENT
??_7failure@ios_base@std@@6B@ DD FLAT:??_R4failure@ios_base@std@@6B@ ; std::ios_base::failure::`vftable'
	DD	FLAT:??_Efailure@ios_base@std@@UAEPAXI@Z
	DD	FLAT:?what@runtime_error@std@@UBEPBDXZ
; Function compile flags: /Ogtpy
CONST	ENDS
;	COMDAT ??0failure@ios_base@std@@QAE@ABV?$basic_string@DU?$char_traits@D@std@@V?$allocator@D@2@@2@@Z
_TEXT	SEGMENT
__Message$ = 8						; size = 4
??0failure@ios_base@std@@QAE@ABV?$basic_string@DU?$char_traits@D@std@@V?$allocator@D@2@@2@@Z PROC ; std::ios_base::failure::failure, COMDAT
; _this$ = ecx

; 208  : 			{	// construct with message

	mov	eax, DWORD PTR __Message$[esp-4]
	push	esi
	push	eax
	mov	esi, ecx
	call	??0runtime_error@std@@QAE@ABV?$basic_string@DU?$char_traits@D@std@@V?$allocator@D@2@@1@@Z ; std::runtime_error::runtime_error
	mov	DWORD PTR [esi], OFFSET ??_7failure@ios_base@std@@6B@

; 209  : 			}

	mov	eax, esi
	pop	esi
	ret	4
??0failure@ios_base@std@@QAE@ABV?$basic_string@DU?$char_traits@D@std@@V?$allocator@D@2@@2@@Z ENDP ; std::ios_base::failure::failure
_TEXT	ENDS
PUBLIC	??1failure@ios_base@std@@UAE@XZ			; std::ios_base::failure::~failure
; Function compile flags: /Ogtpy
;	COMDAT ??1failure@ios_base@std@@UAE@XZ
_TEXT	SEGMENT
??1failure@ios_base@std@@UAE@XZ PROC			; std::ios_base::failure::~failure, COMDAT
; _this$ = ecx

; 212  : 			{	// destroy the object

	push	esi
	mov	esi, ecx

; 213  : 			}

	mov	DWORD PTR [esi], OFFSET ??_7runtime_error@std@@6B@
	cmp	DWORD PTR [esi+36], 16			; 00000010H
	jb	SHORT $LN21@failure
	mov	eax, DWORD PTR [esi+16]
	push	eax
	call	??3@YAXPAX@Z				; operator delete
	add	esp, 4
$LN21@failure:
	xor	eax, eax
	mov	DWORD PTR [esi+36], 15			; 0000000fH
	mov	DWORD PTR [esi+32], eax
	mov	BYTE PTR [esi+16], al
	mov	ecx, esi
	pop	esi
	jmp	??1exception@std@@UAE@XZ		; std::exception::~exception
??1failure@ios_base@std@@UAE@XZ ENDP			; std::ios_base::failure::~failure
; Function compile flags: /Ogtpy
_TEXT	ENDS
;	COMDAT ??_Gfailure@ios_base@std@@UAEPAXI@Z
_TEXT	SEGMENT
___flags$ = 8						; size = 4
??_Gfailure@ios_base@std@@UAEPAXI@Z PROC		; std::ios_base::failure::`scalar deleting destructor', COMDAT
; _this$ = ecx
	push	esi
	mov	esi, ecx
	mov	DWORD PTR [esi], OFFSET ??_7runtime_error@std@@6B@
	cmp	DWORD PTR [esi+36], 16			; 00000010H
	jb	SHORT $LN24@scalar@5
	mov	eax, DWORD PTR [esi+16]
	push	eax
	call	??3@YAXPAX@Z				; operator delete
	add	esp, 4
$LN24@scalar@5:
	xor	eax, eax
	mov	DWORD PTR [esi+36], 15			; 0000000fH
	mov	DWORD PTR [esi+32], eax
	mov	ecx, esi
	mov	BYTE PTR [esi+16], al
	call	??1exception@std@@UAE@XZ		; std::exception::~exception
	test	BYTE PTR ___flags$[esp], 1
	je	SHORT $LN34@scalar@5
	push	esi
	call	??3@YAXPAX@Z				; operator delete
	add	esp, 4
$LN34@scalar@5:
	mov	eax, esi
	pop	esi
	ret	4
??_Gfailure@ios_base@std@@UAEPAXI@Z ENDP		; std::ios_base::failure::`scalar deleting destructor'
_TEXT	ENDS
PUBLIC	??0?$basic_string@DU?$char_traits@D@std@@V?$allocator@D@2@@std@@QAE@PBD@Z ; std::basic_string<char,std::char_traits<char>,std::allocator<char> >::basic_string<char,std::char_traits<char>,std::allocator<char> >
; Function compile flags: /Ogtpy
; File c:\program files\microsoft visual studio 8\vc\include\xstring
;	COMDAT ??0?$basic_string@DU?$char_traits@D@std@@V?$allocator@D@2@@std@@QAE@PBD@Z
_TEXT	SEGMENT
__Ptr$ = 8						; size = 4
??0?$basic_string@DU?$char_traits@D@std@@V?$allocator@D@2@@std@@QAE@PBD@Z PROC ; std::basic_string<char,std::char_traits<char>,std::allocator<char> >::basic_string<char,std::char_traits<char>,std::allocator<char> >, COMDAT
; _this$ = ecx

; 632  : 		_Tidy();
; 633  : 		assign(_Ptr);

	mov	edx, DWORD PTR __Ptr$[esp-4]
	push	esi
	mov	esi, ecx
	mov	eax, edx
	push	edi
	mov	DWORD PTR [esi+24], 15			; 0000000fH
	mov	DWORD PTR [esi+20], 0
	mov	BYTE PTR [esi+4], 0
	lea	edi, DWORD PTR [eax+1]
	npad	1
$LL37@basic_stri@2:
	mov	cl, BYTE PTR [eax]
	add	eax, 1
	test	cl, cl
	jne	SHORT $LL37@basic_stri@2
	sub	eax, edi
	push	eax
	push	edx
	mov	ecx, esi
	call	?assign@?$basic_string@DU?$char_traits@D@std@@V?$allocator@D@2@@std@@QAEAAV12@PBDI@Z ; std::basic_string<char,std::char_traits<char>,std::allocator<char> >::assign
	pop	edi

; 634  : 		}

	mov	eax, esi
	pop	esi
	ret	4
??0?$basic_string@DU?$char_traits@D@std@@V?$allocator@D@2@@std@@QAE@PBD@Z ENDP ; std::basic_string<char,std::char_traits<char>,std::allocator<char> >::basic_string<char,std::char_traits<char>,std::allocator<char> >
_TEXT	ENDS
PUBLIC	__TI2?AVruntime_error@std@@
PUBLIC	??_C@_0BA@ELKIONDK@bad?5locale?5name?$AA@	; `string'
PUBLIC	??0_Locinfo@std@@QAE@PBD@Z			; std::_Locinfo::_Locinfo
PUBLIC	__CTA2?AVruntime_error@std@@
PUBLIC	__CT??_R0?AVruntime_error@std@@@8??0runtime_error@std@@QAE@ABV01@@Z40
PUBLIC	??0runtime_error@std@@QAE@ABV01@@Z		; std::runtime_error::runtime_error
EXTRN	?_Locinfo_ctor@_Locinfo@std@@SAXPAV12@PBD@Z:PROC ; std::_Locinfo::_Locinfo_ctor
;	COMDAT __CT??_R0?AVruntime_error@std@@@8??0runtime_error@std@@QAE@ABV01@@Z40
; File c:\program files\microsoft visual studio 8\vc\include\iosfwd
xdata$x	SEGMENT
__CT??_R0?AVruntime_error@std@@@8??0runtime_error@std@@QAE@ABV01@@Z40 DD 00H
	DD	FLAT:??_R0?AVruntime_error@std@@@8
	DD	00H
	DD	0ffffffffH
	ORG $+4
	DD	028H
	DD	FLAT:??0runtime_error@std@@QAE@ABV01@@Z
xdata$x	ENDS
;	COMDAT __CTA2?AVruntime_error@std@@
xdata$x	SEGMENT
__CTA2?AVruntime_error@std@@ DD 02H
	DD	FLAT:__CT??_R0?AVruntime_error@std@@@8??0runtime_error@std@@QAE@ABV01@@Z40
	DD	FLAT:__CT??_R0?AVexception@std@@@8??0exception@std@@QAE@ABV01@@Z12
xdata$x	ENDS
;	COMDAT __TI2?AVruntime_error@std@@
xdata$x	SEGMENT
__TI2?AVruntime_error@std@@ DD 00H
	DD	FLAT:??1runtime_error@std@@UAE@XZ
	DD	00H
	DD	FLAT:__CTA2?AVruntime_error@std@@
xdata$x	ENDS
;	COMDAT ??_C@_0BA@ELKIONDK@bad?5locale?5name?$AA@
CONST	SEGMENT
??_C@_0BA@ELKIONDK@bad?5locale?5name?$AA@ DB 'bad locale name', 00H ; `string'
CONST	ENDS
;	COMDAT xdata$x
xdata$x	SEGMENT
__ehfuncinfo$??0_Locinfo@std@@QAE@PBD@Z DD 019930522H
	DD	06H
	DD	FLAT:__unwindtable$??0_Locinfo@std@@QAE@PBD@Z
	DD	2 DUP(00H)
	DD	2 DUP(00H)
	DD	00H
	DD	01H
__unwindtable$??0_Locinfo@std@@QAE@PBD@Z DD 0ffffffffH
	DD	FLAT:__unwindfunclet$??0_Locinfo@std@@QAE@PBD@Z$0
	DD	00H
	DD	FLAT:__unwindfunclet$??0_Locinfo@std@@QAE@PBD@Z$1
	DD	01H
	DD	FLAT:__unwindfunclet$??0_Locinfo@std@@QAE@PBD@Z$2
	DD	02H
	DD	FLAT:__unwindfunclet$??0_Locinfo@std@@QAE@PBD@Z$3
	DD	03H
	DD	FLAT:__unwindfunclet$??0_Locinfo@std@@QAE@PBD@Z$4
	DD	04H
	DD	FLAT:__unwindfunclet$??0_Locinfo@std@@QAE@PBD@Z$5
; Function compile flags: /Ogtpy
; File c:\program files\microsoft visual studio 8\vc\include\xlocinfo
xdata$x	ENDS
;	COMDAT ??0_Locinfo@std@@QAE@PBD@Z
_TEXT	SEGMENT
_this$ = -84						; size = 4
$T23105 = -80						; size = 28
$T23104 = -52						; size = 40
__$EHRec$ = -12						; size = 12
__Pch$ = 8						; size = 4
??0_Locinfo@std@@QAE@PBD@Z PROC				; std::_Locinfo::_Locinfo, COMDAT
; _this$ = ecx

; 75   :         {

	push	-1
	push	__ehhandler$??0_Locinfo@std@@QAE@PBD@Z
	mov	eax, DWORD PTR fs:0
	push	eax
	sub	esp, 72					; 00000048H
	push	ebx
	push	esi
	mov	eax, DWORD PTR ___security_cookie
	xor	eax, esp
	push	eax
	lea	eax, DWORD PTR __$EHRec$[esp+96]
	mov	DWORD PTR fs:0, eax
	mov	esi, ecx
	mov	DWORD PTR _this$[esp+96], esi
	xor	ebx, ebx
	push	ebx
	call	??0_Lockit@std@@QAE@H@Z			; std::_Lockit::_Lockit
	mov	eax, 15					; 0000000fH
	mov	DWORD PTR [esi+28], eax
	mov	DWORD PTR [esi+24], ebx
	mov	DWORD PTR __$EHRec$[esp+104], ebx
	mov	BYTE PTR [esi+8], bl
	mov	DWORD PTR [esi+56], eax
	mov	DWORD PTR [esi+52], ebx
	mov	BYTE PTR [esi+36], bl
	mov	DWORD PTR [esi+84], eax
	mov	DWORD PTR [esi+80], ebx
	mov	BYTE PTR [esi+64], bl
	mov	DWORD PTR [esi+112], eax
	mov	DWORD PTR [esi+108], ebx
	mov	BYTE PTR [esi+92], bl

; 76   :         if (_Pch == 0)

	mov	ecx, DWORD PTR __Pch$[esp+92]
	cmp	ecx, ebx
	mov	BYTE PTR __$EHRec$[esp+104], 4
	jne	SHORT $LN1@Locinfo@2

; 77   :             _THROW_NCEE(runtime_error, "bad locale name");

	push	eax
	push	OFFSET ??_C@_0BA@ELKIONDK@bad?5locale?5name?$AA@
	lea	ecx, DWORD PTR $T23105[esp+104]
	mov	DWORD PTR $T23105[esp+128], eax
	mov	DWORD PTR $T23105[esp+124], ebx
	mov	BYTE PTR $T23105[esp+108], bl
	call	?assign@?$basic_string@DU?$char_traits@D@std@@V?$allocator@D@2@@std@@QAEAAV12@PBDI@Z ; std::basic_string<char,std::char_traits<char>,std::allocator<char> >::assign
	lea	eax, DWORD PTR $T23105[esp+96]
	push	eax
	lea	ecx, DWORD PTR $T23104[esp+100]
	mov	BYTE PTR __$EHRec$[esp+108], 5
	call	??0runtime_error@std@@QAE@ABV?$basic_string@DU?$char_traits@D@std@@V?$allocator@D@2@@1@@Z ; std::runtime_error::runtime_error
	push	OFFSET __TI2?AVruntime_error@std@@
	lea	ecx, DWORD PTR $T23104[esp+100]
	push	ecx
	call	__CxxThrowException@8
$LN1@Locinfo@2:

; 78   :         _Locinfo_ctor(this, _Pch);

	push	ecx
	push	esi
	call	?_Locinfo_ctor@_Locinfo@std@@SAXPAV12@PBD@Z ; std::_Locinfo::_Locinfo_ctor
	add	esp, 8

; 79   :         }

	mov	eax, esi
	mov	ecx, DWORD PTR __$EHRec$[esp+96]
	mov	DWORD PTR fs:0, ecx
	pop	ecx
	pop	esi
	pop	ebx
	add	esp, 84					; 00000054H
	ret	4
$LN175@Locinfo@2:
_TEXT	ENDS
;	COMDAT text$x
text$x	SEGMENT
__unwindfunclet$??0_Locinfo@std@@QAE@PBD@Z$0:
	mov	ecx, DWORD PTR _this$[ebp]
	jmp	??1_Lockit@std@@QAE@XZ			; std::_Lockit::~_Lockit
__unwindfunclet$??0_Locinfo@std@@QAE@PBD@Z$1:
	mov	ecx, DWORD PTR _this$[ebp]
	add	ecx, 4
	jmp	??1?$basic_string@DU?$char_traits@D@std@@V?$allocator@D@2@@std@@QAE@XZ ; std::basic_string<char,std::char_traits<char>,std::allocator<char> >::~basic_string<char,std::char_traits<char>,std::allocator<char> >
__unwindfunclet$??0_Locinfo@std@@QAE@PBD@Z$2:
	mov	ecx, DWORD PTR _this$[ebp]
	add	ecx, 32					; 00000020H
	jmp	??1?$basic_string@DU?$char_traits@D@std@@V?$allocator@D@2@@std@@QAE@XZ ; std::basic_string<char,std::char_traits<char>,std::allocator<char> >::~basic_string<char,std::char_traits<char>,std::allocator<char> >
__unwindfunclet$??0_Locinfo@std@@QAE@PBD@Z$3:
	mov	ecx, DWORD PTR _this$[ebp]
	add	ecx, 60					; 0000003cH
	jmp	??1?$basic_string@DU?$char_traits@D@std@@V?$allocator@D@2@@std@@QAE@XZ ; std::basic_string<char,std::char_traits<char>,std::allocator<char> >::~basic_string<char,std::char_traits<char>,std::allocator<char> >
__unwindfunclet$??0_Locinfo@std@@QAE@PBD@Z$4:
	mov	ecx, DWORD PTR _this$[ebp]
	add	ecx, 88					; 00000058H
	jmp	??1?$basic_string@DU?$char_traits@D@std@@V?$allocator@D@2@@std@@QAE@XZ ; std::basic_string<char,std::char_traits<char>,std::allocator<char> >::~basic_string<char,std::char_traits<char>,std::allocator<char> >
__unwindfunclet$??0_Locinfo@std@@QAE@PBD@Z$5:
	lea	ecx, DWORD PTR $T23105[ebp]
	jmp	??1?$basic_string@DU?$char_traits@D@std@@V?$allocator@D@2@@std@@QAE@XZ ; std::basic_string<char,std::char_traits<char>,std::allocator<char> >::~basic_string<char,std::char_traits<char>,std::allocator<char> >
__ehhandler$??0_Locinfo@std@@QAE@PBD@Z:
	mov	edx, DWORD PTR [esp+8]
	lea	eax, DWORD PTR [edx-80]
	mov	ecx, DWORD PTR [edx-84]
	xor	ecx, eax
	call	@__security_check_cookie@4
	mov	eax, OFFSET __ehfuncinfo$??0_Locinfo@std@@QAE@PBD@Z
	jmp	___CxxFrameHandler3
text$x	ENDS
??0_Locinfo@std@@QAE@PBD@Z ENDP				; std::_Locinfo::_Locinfo
;	COMDAT xdata$x
xdata$x	SEGMENT
__unwindtable$??0runtime_error@std@@QAE@ABV01@@Z DD 0ffffffffH
	DD	FLAT:__unwindfunclet$??0runtime_error@std@@QAE@ABV01@@Z$0
__ehfuncinfo$??0runtime_error@std@@QAE@ABV01@@Z DD 019930522H
	DD	01H
	DD	FLAT:__unwindtable$??0runtime_error@std@@QAE@ABV01@@Z
	DD	2 DUP(00H)
	DD	2 DUP(00H)
	DD	00H
	DD	01H
; Function compile flags: /Ogtpy
xdata$x	ENDS
;	COMDAT ??0runtime_error@std@@QAE@ABV01@@Z
_TEXT	SEGMENT
_this$ = -16						; size = 4
__$EHRec$ = -12						; size = 12
___that$ = 8						; size = 4
??0runtime_error@std@@QAE@ABV01@@Z PROC			; std::runtime_error::runtime_error, COMDAT
; _this$ = ecx
	push	-1
	push	__ehhandler$??0runtime_error@std@@QAE@ABV01@@Z
	mov	eax, DWORD PTR fs:0
	push	eax
	push	ecx
	push	esi
	push	edi
	mov	eax, DWORD PTR ___security_cookie
	xor	eax, esp
	push	eax
	lea	eax, DWORD PTR __$EHRec$[esp+28]
	mov	DWORD PTR fs:0, eax
	mov	esi, ecx
	mov	DWORD PTR _this$[esp+28], esi
	mov	edi, DWORD PTR ___that$[esp+24]
	push	edi
	call	??0exception@std@@QAE@ABV01@@Z		; std::exception::exception
	xor	eax, eax
	push	-1
	lea	ecx, DWORD PTR [esi+12]
	mov	DWORD PTR [esi], OFFSET ??_7runtime_error@std@@6B@
	push	eax
	add	edi, 12					; 0000000cH
	mov	DWORD PTR [ecx+24], 15			; 0000000fH
	mov	DWORD PTR [ecx+20], eax
	push	edi
	mov	DWORD PTR __$EHRec$[esp+48], eax
	mov	BYTE PTR [ecx+4], al
	call	?assign@?$basic_string@DU?$char_traits@D@std@@V?$allocator@D@2@@std@@QAEAAV12@ABV12@II@Z ; std::basic_string<char,std::char_traits<char>,std::allocator<char> >::assign
	mov	eax, esi
	mov	ecx, DWORD PTR __$EHRec$[esp+28]
	mov	DWORD PTR fs:0, ecx
	pop	ecx
	pop	edi
	pop	esi
	add	esp, 16					; 00000010H
	ret	4
_TEXT	ENDS
;	COMDAT text$x
text$x	SEGMENT
__unwindfunclet$??0runtime_error@std@@QAE@ABV01@@Z$0:
	mov	ecx, DWORD PTR _this$[ebp]
	jmp	??1exception@std@@UAE@XZ		; std::exception::~exception
__ehhandler$??0runtime_error@std@@QAE@ABV01@@Z:
	mov	edx, DWORD PTR [esp+8]
	lea	eax, DWORD PTR [edx-12]
	mov	ecx, DWORD PTR [edx-16]
	xor	ecx, eax
	call	@__security_check_cookie@4
	mov	eax, OFFSET __ehfuncinfo$??0runtime_error@std@@QAE@ABV01@@Z
	jmp	___CxxFrameHandler3
text$x	ENDS
??0runtime_error@std@@QAE@ABV01@@Z ENDP			; std::runtime_error::runtime_error
PUBLIC	??_7?$ctype@D@std@@6B@				; std::ctype<char>::`vftable'
PUBLIC	??_C@_01GFHCPBMG@C?$AA@				; `string'
PUBLIC	_this$GSCopy$
PUBLIC	__$ArrayPad$
PUBLIC	??0?$ctype@D@std@@QAE@PBF_NI@Z			; std::ctype<char>::ctype<char>
PUBLIC	??_R4?$ctype@D@std@@6B@				; std::ctype<char>::`RTTI Complete Object Locator'
PUBLIC	??_R0?AV?$ctype@D@std@@@8			; std::ctype<char> `RTTI Type Descriptor'
PUBLIC	??_R3?$ctype@D@std@@8				; std::ctype<char>::`RTTI Class Hierarchy Descriptor'
PUBLIC	??_R2?$ctype@D@std@@8				; std::ctype<char>::`RTTI Base Class Array'
PUBLIC	??_R1A@?0A@EA@?$ctype@D@std@@8			; std::ctype<char>::`RTTI Base Class Descriptor at (0,-1,0,64)'
PUBLIC	?do_tolower@?$ctype@D@std@@MBEPBDPADPBD@Z	; std::ctype<char>::do_tolower
PUBLIC	?do_tolower@?$ctype@D@std@@MBEDD@Z		; std::ctype<char>::do_tolower
PUBLIC	?do_toupper@?$ctype@D@std@@MBEPBDPADPBD@Z	; std::ctype<char>::do_toupper
PUBLIC	?do_toupper@?$ctype@D@std@@MBEDD@Z		; std::ctype<char>::do_toupper
PUBLIC	?do_widen@?$ctype@D@std@@MBEPBDPBD0PAD@Z	; std::ctype<char>::do_widen
PUBLIC	?do_widen@?$ctype@D@std@@MBEDD@Z		; std::ctype<char>::do_widen
PUBLIC	?_Do_widen_s@?$ctype@D@std@@MBEPBDPBD0PADI@Z	; std::ctype<char>::_Do_widen_s
PUBLIC	?do_narrow@?$ctype@D@std@@MBEPBDPBD0DPAD@Z	; std::ctype<char>::do_narrow
PUBLIC	?do_narrow@?$ctype@D@std@@MBEDDD@Z		; std::ctype<char>::do_narrow
PUBLIC	?_Do_narrow_s@?$ctype@D@std@@MBEPBDPBD0DPADI@Z	; std::ctype<char>::_Do_narrow_s
EXTRN	??_E?$ctype@D@std@@MAEPAXI@Z:PROC		; std::ctype<char>::`vector deleting destructor'
;	COMDAT ??_R1A@?0A@EA@?$ctype@D@std@@8
; File c:\program files\microsoft visual studio 8\vc\include\xlocale
rdata$r	SEGMENT
??_R1A@?0A@EA@?$ctype@D@std@@8 DD FLAT:??_R0?AV?$ctype@D@std@@@8 ; std::ctype<char>::`RTTI Base Class Descriptor at (0,-1,0,64)'
	DD	02H
	DD	00H
	DD	0ffffffffH
	DD	00H
	DD	040H
	DD	FLAT:??_R3?$ctype@D@std@@8
rdata$r	ENDS
;	COMDAT ??_R2?$ctype@D@std@@8
rdata$r	SEGMENT
??_R2?$ctype@D@std@@8 DD FLAT:??_R1A@?0A@EA@?$ctype@D@std@@8 ; std::ctype<char>::`RTTI Base Class Array'
	DD	FLAT:??_R1A@?0A@EA@ctype_base@std@@8
	DD	FLAT:??_R1A@?0A@EA@facet@locale@std@@8
rdata$r	ENDS
;	COMDAT ??_R3?$ctype@D@std@@8
rdata$r	SEGMENT
??_R3?$ctype@D@std@@8 DD 00H				; std::ctype<char>::`RTTI Class Hierarchy Descriptor'
	DD	00H
	DD	03H
	DD	FLAT:??_R2?$ctype@D@std@@8
rdata$r	ENDS
;	COMDAT ??_R0?AV?$ctype@D@std@@@8
_DATA	SEGMENT
??_R0?AV?$ctype@D@std@@@8 DD FLAT:??_7type_info@@6B@	; std::ctype<char> `RTTI Type Descriptor'
	DD	00H
	DB	'.?AV?$ctype@D@std@@', 00H
_DATA	ENDS
;	COMDAT ??_R4?$ctype@D@std@@6B@
rdata$r	SEGMENT
??_R4?$ctype@D@std@@6B@ DD 00H				; std::ctype<char>::`RTTI Complete Object Locator'
	DD	00H
	DD	00H
	DD	FLAT:??_R0?AV?$ctype@D@std@@@8
	DD	FLAT:??_R3?$ctype@D@std@@8
rdata$r	ENDS
;	COMDAT ??_7?$ctype@D@std@@6B@
CONST	SEGMENT
??_7?$ctype@D@std@@6B@ DD FLAT:??_R4?$ctype@D@std@@6B@	; std::ctype<char>::`vftable'
	DD	FLAT:??_E?$ctype@D@std@@MAEPAXI@Z
	DD	FLAT:?do_tolower@?$ctype@D@std@@MBEPBDPADPBD@Z
	DD	FLAT:?do_tolower@?$ctype@D@std@@MBEDD@Z
	DD	FLAT:?do_toupper@?$ctype@D@std@@MBEPBDPADPBD@Z
	DD	FLAT:?do_toupper@?$ctype@D@std@@MBEDD@Z
	DD	FLAT:?do_widen@?$ctype@D@std@@MBEPBDPBD0PAD@Z
	DD	FLAT:?do_widen@?$ctype@D@std@@MBEDD@Z
	DD	FLAT:?_Do_widen_s@?$ctype@D@std@@MBEPBDPBD0PADI@Z
	DD	FLAT:?do_narrow@?$ctype@D@std@@MBEPBDPBD0DPAD@Z
	DD	FLAT:?do_narrow@?$ctype@D@std@@MBEDDD@Z
	DD	FLAT:?_Do_narrow_s@?$ctype@D@std@@MBEPBDPBD0DPADI@Z
CONST	ENDS
;	COMDAT ??_C@_01GFHCPBMG@C?$AA@
CONST	SEGMENT
??_C@_01GFHCPBMG@C?$AA@ DB 'C', 00H			; `string'
CONST	ENDS
;	COMDAT xdata$x
xdata$x	SEGMENT
__unwindtable$??0?$ctype@D@std@@QAE@PBF_NI@Z DD 0ffffffffH
	DD	FLAT:__unwindfunclet$??0?$ctype@D@std@@QAE@PBF_NI@Z$0
__ehfuncinfo$??0?$ctype@D@std@@QAE@PBF_NI@Z DD 019930522H
	DD	01H
	DD	FLAT:__unwindtable$??0?$ctype@D@std@@QAE@PBF_NI@Z
	DD	2 DUP(00H)
	DD	2 DUP(00H)
	DD	00H
	DD	01H
; Function compile flags: /Ogtpy
xdata$x	ENDS
;	COMDAT ??0?$ctype@D@std@@QAE@PBF_NI@Z
_TEXT	SEGMENT
_this$GSCopy$ = -152					; size = 4
$T23959 = -148						; size = 16
__Lobj$12587 = -132					; size = 116
__$ArrayPad$ = -16					; size = 4
__$EHRec$ = -12						; size = 12
__Table$ = 8						; size = 4
__Deletetable$ = 12					; size = 1
__Refs$ = 16						; size = 4
??0?$ctype@D@std@@QAE@PBF_NI@Z PROC			; std::ctype<char>::ctype<char>, COMDAT
; _this$ = ecx

; 1739 : 		{	// construct with specified table and delete flag for table

	push	-1
	push	__ehhandler$??0?$ctype@D@std@@QAE@PBF_NI@Z
	mov	eax, DWORD PTR fs:0
	push	eax
	sub	esp, 140				; 0000008cH
	mov	eax, DWORD PTR ___security_cookie
	xor	eax, esp
	mov	DWORD PTR __$ArrayPad$[esp+152], eax
	push	esi
	push	edi
	mov	eax, DWORD PTR ___security_cookie
	xor	eax, esp
	push	eax
	lea	eax, DWORD PTR __$EHRec$[esp+164]
	mov	DWORD PTR fs:0, eax
	mov	eax, DWORD PTR __Refs$[esp+160]
	mov	esi, ecx
	mov	DWORD PTR _this$GSCopy$[esp+164], esi
	mov	DWORD PTR [esi+4], eax

; 1740 : 		_BEGIN_LOCINFO(_Lobj)

	push	OFFSET ??_C@_01GFHCPBMG@C?$AA@
	lea	ecx, DWORD PTR __Lobj$12587[esp+168]
	mov	DWORD PTR __$EHRec$[esp+176], 0
	mov	DWORD PTR [esi], OFFSET ??_7?$ctype@D@std@@6B@
	call	??0_Locinfo@std@@QAE@PBD@Z		; std::_Locinfo::_Locinfo

; 1741 : 			_Init(_Lobj);

	lea	ecx, DWORD PTR $T23959[esp+164]
	push	ecx
	call	__Getctype
	mov	edx, DWORD PTR [eax]
	mov	DWORD PTR [esi+8], edx
	mov	ecx, DWORD PTR [eax+4]
	mov	DWORD PTR [esi+12], ecx
	mov	edx, DWORD PTR [eax+8]
	mov	DWORD PTR [esi+16], edx
	mov	eax, DWORD PTR [eax+12]
	add	esp, 4

; 1742 : 		_END_LOCINFO()

	lea	ecx, DWORD PTR __Lobj$12587[esp+164]
	mov	DWORD PTR [esi+20], eax
	call	??1_Locinfo@std@@QAE@XZ			; std::_Locinfo::~_Locinfo

; 1743 : 		if (_Table != 0)

	mov	edi, DWORD PTR __Table$[esp+160]
	test	edi, edi
	je	SHORT $LN19@ctype

; 1744 : 			{	// replace existing char to mask table
; 1745 : 			_Tidy();

	mov	eax, DWORD PTR [esi+20]
	test	eax, eax
	jle	SHORT $LN21@ctype
	mov	ecx, DWORD PTR [esi+16]
	push	ecx
	call	_free
	jmp	SHORT $LN22@ctype
$LN21@ctype:
	jge	SHORT $LN14@ctype
	mov	edx, DWORD PTR [esi+16]
	push	edx
	call	??_V@YAXPAX@Z				; operator delete[]
$LN22@ctype:
	add	esp, 4
$LN14@ctype:

; 1746 : 			_Ctype._Table = _Table;
; 1747 : 			_Ctype._Delfl = _Deletetable ? -1 : 0;

	mov	al, BYTE PTR __Deletetable$[esp+160]
	neg	al
	mov	DWORD PTR [esi+16], edi
	sbb	eax, eax
	mov	DWORD PTR [esi+20], eax
$LN19@ctype:

; 1748 : 			}
; 1749 : 		}

	mov	eax, esi
	mov	ecx, DWORD PTR __$EHRec$[esp+164]
	mov	DWORD PTR fs:0, ecx
	pop	ecx
	pop	edi
	pop	esi
	mov	ecx, DWORD PTR __$ArrayPad$[esp+152]
	xor	ecx, esp
	call	@__security_check_cookie@4
	add	esp, 152				; 00000098H
	ret	12					; 0000000cH
_TEXT	ENDS
;	COMDAT text$x
text$x	SEGMENT
__unwindfunclet$??0?$ctype@D@std@@QAE@PBF_NI@Z$0:
	mov	ecx, DWORD PTR _this$GSCopy$[ebp]
	jmp	??1ctype_base@std@@UAE@XZ		; std::ctype_base::~ctype_base
__ehhandler$??0?$ctype@D@std@@QAE@PBF_NI@Z:
	mov	edx, DWORD PTR [esp+8]
	lea	eax, DWORD PTR [edx-148]
	mov	ecx, DWORD PTR [edx-152]
	xor	ecx, eax
	call	@__security_check_cookie@4
	add	eax, 8
	mov	ecx, DWORD PTR [edx-4]
	xor	ecx, eax
	call	@__security_check_cookie@4
	mov	eax, OFFSET __ehfuncinfo$??0?$ctype@D@std@@QAE@PBF_NI@Z
	jmp	___CxxFrameHandler3
text$x	ENDS
??0?$ctype@D@std@@QAE@PBF_NI@Z ENDP			; std::ctype<char>::ctype<char>
EXTRN	__Tolower:PROC
; Function compile flags: /Ogtpy
;	COMDAT ?do_tolower@?$ctype@D@std@@MBEDD@Z
_TEXT	SEGMENT
__Ch$ = 8						; size = 1
?do_tolower@?$ctype@D@std@@MBEDD@Z PROC			; std::ctype<char>::do_tolower, COMDAT
; _this$ = ecx

; 1788 : 		return ((_Elem)_Tolower((unsigned char)_Ch, &_Ctype));

	movzx	eax, BYTE PTR __Ch$[esp-4]
	add	ecx, 8
	push	ecx
	push	eax
	call	__Tolower
	add	esp, 8

; 1789 : 		}

	ret	4
?do_tolower@?$ctype@D@std@@MBEDD@Z ENDP			; std::ctype<char>::do_tolower
; Function compile flags: /Ogtpy
_TEXT	ENDS
;	COMDAT ?do_tolower@?$ctype@D@std@@MBEPBDPADPBD@Z
_TEXT	SEGMENT
__First$ = 8						; size = 4
__Last$ = 12						; size = 4
?do_tolower@?$ctype@D@std@@MBEPBDPADPBD@Z PROC		; std::ctype<char>::do_tolower, COMDAT
; _this$ = ecx

; 1793 : 		{	// convert [_First, _Last) in place to lower case

	push	ebx

; 1794 : 		_DEBUG_RANGE((const _Elem *)_First, _Last);
; 1795 : 		for (; _First != _Last; ++_First)

	mov	ebx, DWORD PTR __Last$[esp]
	push	esi
	mov	esi, DWORD PTR __First$[esp+4]
	cmp	esi, ebx
	je	SHORT $LN8@do_tolower
	push	edi
	lea	edi, DWORD PTR [ecx+8]
$LL3@do_tolower:

; 1796 : 			*_First = (_Elem)_Tolower((unsigned char)*_First, &_Ctype);

	movzx	eax, BYTE PTR [esi]
	push	edi
	push	eax
	call	__Tolower
	mov	BYTE PTR [esi], al
	add	esi, 1
	add	esp, 8
	cmp	esi, ebx
	jne	SHORT $LL3@do_tolower
	pop	edi
$LN8@do_tolower:

; 1797 : 		return ((const _Elem *)_First);

	mov	eax, esi
	pop	esi
	pop	ebx

; 1798 : 		}

	ret	8
?do_tolower@?$ctype@D@std@@MBEPBDPADPBD@Z ENDP		; std::ctype<char>::do_tolower
_TEXT	ENDS
EXTRN	__Toupper:PROC
; Function compile flags: /Ogtpy
;	COMDAT ?do_toupper@?$ctype@D@std@@MBEDD@Z
_TEXT	SEGMENT
__Ch$ = 8						; size = 1
?do_toupper@?$ctype@D@std@@MBEDD@Z PROC			; std::ctype<char>::do_toupper, COMDAT
; _this$ = ecx

; 1802 : 		return ((_Elem)_Toupper((unsigned char)_Ch, &_Ctype));

	movzx	eax, BYTE PTR __Ch$[esp-4]
	add	ecx, 8
	push	ecx
	push	eax
	call	__Toupper
	add	esp, 8

; 1803 : 		}

	ret	4
?do_toupper@?$ctype@D@std@@MBEDD@Z ENDP			; std::ctype<char>::do_toupper
; Function compile flags: /Ogtpy
_TEXT	ENDS
;	COMDAT ?do_toupper@?$ctype@D@std@@MBEPBDPADPBD@Z
_TEXT	SEGMENT
__First$ = 8						; size = 4
__Last$ = 12						; size = 4
?do_toupper@?$ctype@D@std@@MBEPBDPADPBD@Z PROC		; std::ctype<char>::do_toupper, COMDAT
; _this$ = ecx

; 1807 : 		{	// convert [_First, _Last) in place to upper case

	push	ebx

; 1808 : 		_DEBUG_RANGE((const _Elem *)_First, _Last);
; 1809 : 		for (; _First != _Last; ++_First)

	mov	ebx, DWORD PTR __Last$[esp]
	push	esi
	mov	esi, DWORD PTR __First$[esp+4]
	cmp	esi, ebx
	je	SHORT $LN8@do_toupper
	push	edi
	lea	edi, DWORD PTR [ecx+8]
$LL3@do_toupper:

; 1810 : 			*_First = (_Elem)_Toupper((unsigned char)*_First, &_Ctype);

	movzx	eax, BYTE PTR [esi]
	push	edi
	push	eax
	call	__Toupper
	mov	BYTE PTR [esi], al
	add	esi, 1
	add	esp, 8
	cmp	esi, ebx
	jne	SHORT $LL3@do_toupper
	pop	edi
$LN8@do_toupper:

; 1811 : 		return ((const _Elem *)_First);

	mov	eax, esi
	pop	esi
	pop	ebx

; 1812 : 		}

	ret	8
?do_toupper@?$ctype@D@std@@MBEPBDPADPBD@Z ENDP		; std::ctype<char>::do_toupper
; Function compile flags: /Ogtpy
_TEXT	ENDS
;	COMDAT ?do_widen@?$ctype@D@std@@MBEDD@Z
_TEXT	SEGMENT
__Byte$ = 8						; size = 1
?do_widen@?$ctype@D@std@@MBEDD@Z PROC			; std::ctype<char>::do_widen, COMDAT
; _this$ = ecx

; 1816 : 		return (_Byte);

	mov	al, BYTE PTR __Byte$[esp-4]

; 1817 : 		}

	ret	4
?do_widen@?$ctype@D@std@@MBEDD@Z ENDP			; std::ctype<char>::do_widen
; Function compile flags: /Ogtpy
_TEXT	ENDS
;	COMDAT ?do_widen@?$ctype@D@std@@MBEPBDPBD0PAD@Z
_TEXT	SEGMENT
__First$ = 8						; size = 4
__Last$ = 12						; size = 4
__Dest$ = 16						; size = 4
?do_widen@?$ctype@D@std@@MBEPBDPBD0PAD@Z PROC		; std::ctype<char>::do_widen, COMDAT
; _this$ = ecx

; 1823 : 		// assume there is enough space in _Dest
; 1824 : 		return _Do_widen_s(_First, _Last, _Dest, _Last - _First);

	mov	eax, DWORD PTR __Last$[esp-4]
	mov	edx, DWORD PTR __First$[esp-4]
	push	esi
	mov	esi, DWORD PTR [ecx]
	push	edi
	mov	edi, eax
	sub	edi, edx
	push	edi
	mov	edi, DWORD PTR __Dest$[esp+8]
	push	edi
	push	eax
	mov	eax, DWORD PTR [esi+28]
	push	edx
	call	eax
	pop	edi
	pop	esi

; 1825 : 		}

	ret	12					; 0000000cH
?do_widen@?$ctype@D@std@@MBEPBDPBD0PAD@Z ENDP		; std::ctype<char>::do_widen
_TEXT	ENDS
EXTRN	__invalid_parameter_noinfo:PROC
; Function compile flags: /Ogtpy
;	COMDAT ?_Do_widen_s@?$ctype@D@std@@MBEPBDPBD0PADI@Z
_TEXT	SEGMENT
__First$ = 8						; size = 4
__Last$ = 12						; size = 4
__Dest$ = 16						; size = 4
__Dest_size$ = 20					; size = 4
?_Do_widen_s@?$ctype@D@std@@MBEPBDPBD0PADI@Z PROC	; std::ctype<char>::_Do_widen_s, COMDAT
; _this$ = ecx

; 1829 : 		{	// widen chars in [_First, _Last)

	push	ebx

; 1830 : 		_DEBUG_RANGE(_First, _Last);
; 1831 : 		_DEBUG_POINTER(_Dest);
; 1832 : 		_SCL_SECURE_ALWAYS_VALIDATE_RANGE(_Dest_size >= (size_t)(_Last - _First));

	mov	ebx, DWORD PTR __First$[esp]
	push	ebp
	mov	ebp, DWORD PTR __Dest_size$[esp+4]
	push	esi
	push	edi
	mov	edi, DWORD PTR __Last$[esp+12]
	mov	esi, edi
	sub	esi, ebx
	cmp	ebp, esi
	jae	SHORT $LN1@Do_widen_s
	call	__invalid_parameter_noinfo
$LN1@Do_widen_s:

; 1833 : 		_CRT_SECURE_MEMCPY(_Dest, _Dest_size, _First, _Last - _First);

	mov	eax, DWORD PTR __Dest$[esp+12]
	push	esi
	push	ebx
	push	ebp
	push	eax
	call	_memcpy_s
	add	esp, 16					; 00000010H

; 1834 : 		return (_Last);

	mov	eax, edi
	pop	edi
	pop	esi
	pop	ebp
	pop	ebx

; 1835 : 		}

	ret	16					; 00000010H
?_Do_widen_s@?$ctype@D@std@@MBEPBDPBD0PADI@Z ENDP	; std::ctype<char>::_Do_widen_s
; Function compile flags: /Ogtpy
_TEXT	ENDS
;	COMDAT ?do_narrow@?$ctype@D@std@@MBEDDD@Z
_TEXT	SEGMENT
__Ch$ = 8						; size = 1
___formal$ = 12						; size = 1
?do_narrow@?$ctype@D@std@@MBEDDD@Z PROC			; std::ctype<char>::do_narrow, COMDAT
; _this$ = ecx

; 1839 : 		return (_Ch);

	mov	al, BYTE PTR __Ch$[esp-4]

; 1840 : 		}

	ret	8
?do_narrow@?$ctype@D@std@@MBEDDD@Z ENDP			; std::ctype<char>::do_narrow
; Function compile flags: /Ogtpy
_TEXT	ENDS
;	COMDAT ?do_narrow@?$ctype@D@std@@MBEPBDPBD0DPAD@Z
_TEXT	SEGMENT
__First$ = 8						; size = 4
__Last$ = 12						; size = 4
__Dflt$ = 16						; size = 1
__Dest$ = 20						; size = 4
?do_narrow@?$ctype@D@std@@MBEPBDPBD0DPAD@Z PROC		; std::ctype<char>::do_narrow, COMDAT
; _this$ = ecx

; 1847 : 		// assume there is enough space in _Dest
; 1848 : 		return _Do_narrow_s(_First, _Last, _Dflt, _Dest, _Last - _First);

	mov	eax, DWORD PTR __Last$[esp-4]
	mov	edx, DWORD PTR __First$[esp-4]
	push	esi
	mov	esi, DWORD PTR [ecx]
	push	edi
	mov	edi, eax
	sub	edi, edx
	push	edi
	mov	edi, DWORD PTR __Dest$[esp+8]
	push	edi
	mov	edi, DWORD PTR __Dflt$[esp+12]
	push	edi
	push	eax
	mov	eax, DWORD PTR [esi+40]
	push	edx
	call	eax
	pop	edi
	pop	esi

; 1849 : 		}

	ret	16					; 00000010H
?do_narrow@?$ctype@D@std@@MBEPBDPBD0DPAD@Z ENDP		; std::ctype<char>::do_narrow
; Function compile flags: /Ogtpy
_TEXT	ENDS
;	COMDAT ?_Do_narrow_s@?$ctype@D@std@@MBEPBDPBD0DPADI@Z
_TEXT	SEGMENT
__First$ = 8						; size = 4
__Last$ = 12						; size = 4
___formal$ = 16						; size = 1
__Dest$ = 20						; size = 4
__Dest_size$ = 24					; size = 4
?_Do_narrow_s@?$ctype@D@std@@MBEPBDPBD0DPADI@Z PROC	; std::ctype<char>::_Do_narrow_s, COMDAT
; _this$ = ecx

; 1854 : 		{	// narrow elements in [_First, _Last) to chars

	push	ebx

; 1855 : 		_DEBUG_RANGE(_First, _Last);
; 1856 : 		_DEBUG_POINTER(_Dest);
; 1857 : 		_SCL_SECURE_ALWAYS_VALIDATE_RANGE(_Dest_size >= (size_t)(_Last - _First));

	mov	ebx, DWORD PTR __First$[esp]
	push	ebp
	mov	ebp, DWORD PTR __Dest_size$[esp+4]
	push	esi
	push	edi
	mov	edi, DWORD PTR __Last$[esp+12]
	mov	esi, edi
	sub	esi, ebx
	cmp	ebp, esi
	jae	SHORT $LN1@Do_narrow_
	call	__invalid_parameter_noinfo
$LN1@Do_narrow_:

; 1858 : 		_CRT_SECURE_MEMCPY(_Dest, _Dest_size, _First, _Last - _First);

	mov	eax, DWORD PTR __Dest$[esp+12]
	push	esi
	push	ebx
	push	ebp
	push	eax
	call	_memcpy_s
	add	esp, 16					; 00000010H

; 1859 : 		return (_Last);

	mov	eax, edi
	pop	edi
	pop	esi
	pop	ebp
	pop	ebx

; 1860 : 		}

	ret	20					; 00000014H
?_Do_narrow_s@?$ctype@D@std@@MBEPBDPBD0DPADI@Z ENDP	; std::ctype<char>::_Do_narrow_s
_TEXT	ENDS
PUBLIC	??1?$ctype@D@std@@MAE@XZ			; std::ctype<char>::~ctype<char>
; Function compile flags: /Ogtpy
;	COMDAT ??1?$ctype@D@std@@MAE@XZ
_TEXT	SEGMENT
??1?$ctype@D@std@@MAE@XZ PROC				; std::ctype<char>::~ctype<char>, COMDAT
; _this$ = ecx

; 1768 : 		{	// destroy the object

	push	esi
	mov	esi, ecx

; 1769 : 		_Tidy();

	mov	eax, DWORD PTR [esi+20]
	test	eax, eax
	mov	DWORD PTR [esi], OFFSET ??_7?$ctype@D@std@@6B@
	jle	SHORT $LN14@ctype@2
	mov	eax, DWORD PTR [esi+16]
	push	eax
	call	_free
	add	esp, 4

; 1770 : 		}

	mov	DWORD PTR [esi], OFFSET ??_7facet@locale@std@@6B@
	pop	esi
	ret	0
$LN14@ctype@2:

; 1769 : 		_Tidy();

	jge	SHORT $LN13@ctype@2
	mov	ecx, DWORD PTR [esi+16]
	push	ecx
	call	??_V@YAXPAX@Z				; operator delete[]
	add	esp, 4
$LN13@ctype@2:

; 1770 : 		}

	mov	DWORD PTR [esi], OFFSET ??_7facet@locale@std@@6B@
	pop	esi
	ret	0
??1?$ctype@D@std@@MAE@XZ ENDP				; std::ctype<char>::~ctype<char>
; Function compile flags: /Ogtpy
_TEXT	ENDS
;	COMDAT ??_G?$ctype@D@std@@MAEPAXI@Z
_TEXT	SEGMENT
___flags$ = 8						; size = 4
??_G?$ctype@D@std@@MAEPAXI@Z PROC			; std::ctype<char>::`scalar deleting destructor', COMDAT
; _this$ = ecx
	push	esi
	mov	esi, ecx
	mov	eax, DWORD PTR [esi+20]
	test	eax, eax
	mov	DWORD PTR [esi], OFFSET ??_7?$ctype@D@std@@6B@
	jle	SHORT $LN16@scalar@6
	mov	eax, DWORD PTR [esi+16]
	push	eax
	call	_free
	jmp	SHORT $LN17@scalar@6
$LN16@scalar@6:
	jge	SHORT $LN6@scalar@6
	mov	ecx, DWORD PTR [esi+16]
	push	ecx
	call	??_V@YAXPAX@Z				; operator delete[]
$LN17@scalar@6:
	add	esp, 4
$LN6@scalar@6:
	test	BYTE PTR ___flags$[esp], 1
	mov	DWORD PTR [esi], OFFSET ??_7facet@locale@std@@6B@
	je	SHORT $LN15@scalar@6
	push	esi
	call	??3@YAXPAX@Z				; operator delete
	add	esp, 4
$LN15@scalar@6:
	mov	eax, esi
	pop	esi
	ret	4
??_G?$ctype@D@std@@MAEPAXI@Z ENDP			; std::ctype<char>::`scalar deleting destructor'
_TEXT	ENDS
PUBLIC	?_Getcat@?$ctype@D@std@@SAIPAPBVfacet@locale@2@@Z ; std::ctype<char>::_Getcat
;	COMDAT xdata$x
xdata$x	SEGMENT
__unwindtable$?_Getcat@?$ctype@D@std@@SAIPAPBVfacet@locale@2@@Z DD 0ffffffffH
	DD	FLAT:__unwindfunclet$?_Getcat@?$ctype@D@std@@SAIPAPBVfacet@locale@2@@Z$0
__ehfuncinfo$?_Getcat@?$ctype@D@std@@SAIPAPBVfacet@locale@2@@Z DD 019930522H
	DD	01H
	DD	FLAT:__unwindtable$?_Getcat@?$ctype@D@std@@SAIPAPBVfacet@locale@2@@Z
	DD	2 DUP(00H)
	DD	2 DUP(00H)
	DD	00H
	DD	01H
; Function compile flags: /Ogtpy
xdata$x	ENDS
;	COMDAT ?_Getcat@?$ctype@D@std@@SAIPAPBVfacet@locale@2@@Z
_TEXT	SEGMENT
__$EHRec$ = -12						; size = 12
$T24064 = 8						; size = 4
__Ppf$ = 8						; size = 4
?_Getcat@?$ctype@D@std@@SAIPAPBVfacet@locale@2@@Z PROC	; std::ctype<char>::_Getcat, COMDAT

; 1758 : 		{	// construct from specified locale

	push	-1
	push	__ehhandler$?_Getcat@?$ctype@D@std@@SAIPAPBVfacet@locale@2@@Z
	mov	eax, DWORD PTR fs:0
	push	eax
	push	esi
	mov	eax, DWORD PTR ___security_cookie
	xor	eax, esp
	push	eax
	lea	eax, DWORD PTR __$EHRec$[esp+20]
	mov	DWORD PTR fs:0, eax

; 1759 : 		if (_Ppf != 0 && *_Ppf == 0)

	mov	esi, DWORD PTR __Ppf$[esp+16]
	test	esi, esi
	je	SHORT $LN8@Getcat
	cmp	DWORD PTR [esi], 0
	jne	SHORT $LN8@Getcat

; 1760 : 			*_Ppf = _NEW_CRT ctype<_Elem>;

	push	24					; 00000018H
	call	??2@YAPAXI@Z				; operator new
	add	esp, 4
	mov	DWORD PTR $T24064[esp+16], eax
	test	eax, eax
	mov	DWORD PTR __$EHRec$[esp+28], 0
	je	SHORT $LN4@Getcat
	push	0
	push	0
	push	0
	mov	ecx, eax
	call	??0?$ctype@D@std@@QAE@PBF_NI@Z		; std::ctype<char>::ctype<char>
	jmp	SHORT $LN5@Getcat
$LN4@Getcat:
	xor	eax, eax
$LN5@Getcat:
	mov	DWORD PTR [esi], eax
$LN8@Getcat:

; 1761 : 		return (_X_CTYPE);

	mov	eax, 2

; 1762 : 		}

	mov	ecx, DWORD PTR __$EHRec$[esp+20]
	mov	DWORD PTR fs:0, ecx
	pop	ecx
	pop	esi
	add	esp, 12					; 0000000cH
	ret	0
_TEXT	ENDS
;	COMDAT text$x
text$x	SEGMENT
__unwindfunclet$?_Getcat@?$ctype@D@std@@SAIPAPBVfacet@locale@2@@Z$0:
	mov	eax, DWORD PTR $T24064[ebp-4]
	push	eax
	call	??3@YAXPAX@Z				; operator delete
	pop	ecx
	ret	0
__ehhandler$?_Getcat@?$ctype@D@std@@SAIPAPBVfacet@locale@2@@Z:
	mov	edx, DWORD PTR [esp+8]
	lea	eax, DWORD PTR [edx-4]
	mov	ecx, DWORD PTR [edx-8]
	xor	ecx, eax
	call	@__security_check_cookie@4
	mov	eax, OFFSET __ehfuncinfo$?_Getcat@?$ctype@D@std@@SAIPAPBVfacet@locale@2@@Z
	jmp	___CxxFrameHandler3
text$x	ENDS
?_Getcat@?$ctype@D@std@@SAIPAPBVfacet@locale@2@@Z ENDP	; std::ctype<char>::_Getcat
PUBLIC	??_C@_0BF@OOHOMBOF@ios_base?3?3eofbit?5set?$AA@	; `string'
PUBLIC	??_C@_0BG@FMKFHCIL@ios_base?3?3failbit?5set?$AA@ ; `string'
PUBLIC	__TI3?AVfailure@ios_base@std@@
PUBLIC	??_C@_0BF@PHHKMMFD@ios_base?3?3badbit?5set?$AA@	; `string'
PUBLIC	?clear@ios_base@std@@QAEXH_N@Z			; std::ios_base::clear
PUBLIC	__CTA3?AVfailure@ios_base@std@@
PUBLIC	__CT??_R0?AVfailure@ios_base@std@@@8??0failure@ios_base@std@@QAE@ABV012@@Z40
PUBLIC	??0failure@ios_base@std@@QAE@ABV012@@Z		; std::ios_base::failure::failure
;	COMDAT __CT??_R0?AVfailure@ios_base@std@@@8??0failure@ios_base@std@@QAE@ABV012@@Z40
; File c:\program files\microsoft visual studio 8\vc\include\xiosbase
xdata$x	SEGMENT
__CT??_R0?AVfailure@ios_base@std@@@8??0failure@ios_base@std@@QAE@ABV012@@Z40 DD 00H
	DD	FLAT:??_R0?AVfailure@ios_base@std@@@8
	DD	00H
	DD	0ffffffffH
	ORG $+4
	DD	028H
	DD	FLAT:??0failure@ios_base@std@@QAE@ABV012@@Z
xdata$x	ENDS
;	COMDAT __CTA3?AVfailure@ios_base@std@@
xdata$x	SEGMENT
__CTA3?AVfailure@ios_base@std@@ DD 03H
	DD	FLAT:__CT??_R0?AVfailure@ios_base@std@@@8??0failure@ios_base@std@@QAE@ABV012@@Z40
	DD	FLAT:__CT??_R0?AVruntime_error@std@@@8??0runtime_error@std@@QAE@ABV01@@Z40
	DD	FLAT:__CT??_R0?AVexception@std@@@8??0exception@std@@QAE@ABV01@@Z12
xdata$x	ENDS
;	COMDAT ??_C@_0BF@OOHOMBOF@ios_base?3?3eofbit?5set?$AA@
CONST	SEGMENT
??_C@_0BF@OOHOMBOF@ios_base?3?3eofbit?5set?$AA@ DB 'ios_base::eofbit set', 00H ; `string'
CONST	ENDS
;	COMDAT ??_C@_0BG@FMKFHCIL@ios_base?3?3failbit?5set?$AA@
CONST	SEGMENT
??_C@_0BG@FMKFHCIL@ios_base?3?3failbit?5set?$AA@ DB 'ios_base::failbit se'
	DB	't', 00H					; `string'
CONST	ENDS
;	COMDAT __TI3?AVfailure@ios_base@std@@
xdata$x	SEGMENT
__TI3?AVfailure@ios_base@std@@ DD 00H
	DD	FLAT:??1failure@ios_base@std@@UAE@XZ
	DD	00H
	DD	FLAT:__CTA3?AVfailure@ios_base@std@@
xdata$x	ENDS
;	COMDAT ??_C@_0BF@PHHKMMFD@ios_base?3?3badbit?5set?$AA@
CONST	SEGMENT
??_C@_0BF@PHHKMMFD@ios_base?3?3badbit?5set?$AA@ DB 'ios_base::badbit set', 00H ; `string'
CONST	ENDS
;	COMDAT xdata$x
xdata$x	SEGMENT
__unwindtable$?clear@ios_base@std@@QAEXH_N@Z DD 0ffffffffH
	DD	FLAT:__unwindfunclet$?clear@ios_base@std@@QAEXH_N@Z$0
	DD	0ffffffffH
	DD	FLAT:__unwindfunclet$?clear@ios_base@std@@QAEXH_N@Z$1
	DD	0ffffffffH
	DD	FLAT:__unwindfunclet$?clear@ios_base@std@@QAEXH_N@Z$2
__ehfuncinfo$?clear@ios_base@std@@QAEXH_N@Z DD 019930522H
	DD	03H
	DD	FLAT:__unwindtable$?clear@ios_base@std@@QAEXH_N@Z
	DD	2 DUP(00H)
	DD	2 DUP(00H)
	DD	00H
	DD	01H
; Function compile flags: /Ogtpy
xdata$x	ENDS
;	COMDAT ?clear@ios_base@std@@QAEXH_N@Z
_TEXT	SEGMENT
$T24080 = -148						; size = 40
$T24078 = -148						; size = 40
$T24081 = -108						; size = 28
$T24079 = -108						; size = 28
$T24082 = -80						; size = 40
$T24083 = -40						; size = 28
__$EHRec$ = -12						; size = 12
__State$ = 8						; size = 4
__Reraise$ = 12						; size = 1
?clear@ios_base@std@@QAEXH_N@Z PROC			; std::ios_base::clear, COMDAT
; _this$ = ecx

; 273  :         {	// set state, possibly reraise exception

	push	-1
	push	__ehhandler$?clear@ios_base@std@@QAEXH_N@Z
	mov	eax, DWORD PTR fs:0
	push	eax
	sub	esp, 136				; 00000088H
	mov	eax, DWORD PTR ___security_cookie
	xor	eax, esp
	push	eax
	lea	eax, DWORD PTR __$EHRec$[esp+152]
	mov	DWORD PTR fs:0, eax

; 274  :         _Mystate = (iostate)(_State & _Statmask);

	mov	eax, DWORD PTR __State$[esp+148]
	and	eax, 23					; 00000017H
	mov	DWORD PTR [ecx+8], eax

; 275  :         if ((_Mystate & _Except) == 0)

	mov	ecx, DWORD PTR [ecx+12]
	and	ecx, eax
	je	$LN1@clear

; 276  :             ;
; 277  :         else if (_Reraise)

	cmp	BYTE PTR __Reraise$[esp+148], 0
	je	SHORT $LN6@clear

; 278  :             _RERAISE;

	push	0
	push	0
	call	__CxxThrowException@8
$LN6@clear:

; 279  :         else if (_Mystate & _Except & badbit)

	test	cl, 4
	je	SHORT $LN4@clear

; 280  :             _THROW_NCEE(failure, "ios_base::badbit set");

	push	OFFSET ??_C@_0BF@PHHKMMFD@ios_base?3?3badbit?5set?$AA@
	lea	ecx, DWORD PTR $T24079[esp+156]
	call	??0?$basic_string@DU?$char_traits@D@std@@V?$allocator@D@2@@std@@QAE@PBD@Z ; std::basic_string<char,std::char_traits<char>,std::allocator<char> >::basic_string<char,std::char_traits<char>,std::allocator<char> >
	lea	eax, DWORD PTR $T24079[esp+152]
	push	eax
	lea	ecx, DWORD PTR $T24078[esp+156]
	mov	DWORD PTR __$EHRec$[esp+164], 0
	call	??0runtime_error@std@@QAE@ABV?$basic_string@DU?$char_traits@D@std@@V?$allocator@D@2@@1@@Z ; std::runtime_error::runtime_error
	push	OFFSET __TI3?AVfailure@ios_base@std@@
	lea	ecx, DWORD PTR $T24078[esp+156]
	push	ecx
	mov	DWORD PTR $T24078[esp+160], OFFSET ??_7failure@ios_base@std@@6B@
	call	__CxxThrowException@8
$LN4@clear:

; 281  :         else if (_Mystate & _Except & failbit)

	test	cl, 2
	je	SHORT $LN2@clear

; 282  :             _THROW_NCEE(failure, "ios_base::failbit set");

	push	OFFSET ??_C@_0BG@FMKFHCIL@ios_base?3?3failbit?5set?$AA@
	lea	ecx, DWORD PTR $T24081[esp+156]
	call	??0?$basic_string@DU?$char_traits@D@std@@V?$allocator@D@2@@std@@QAE@PBD@Z ; std::basic_string<char,std::char_traits<char>,std::allocator<char> >::basic_string<char,std::char_traits<char>,std::allocator<char> >
	lea	edx, DWORD PTR $T24081[esp+152]
	push	edx
	lea	ecx, DWORD PTR $T24080[esp+156]
	mov	DWORD PTR __$EHRec$[esp+164], 1
	call	??0runtime_error@std@@QAE@ABV?$basic_string@DU?$char_traits@D@std@@V?$allocator@D@2@@1@@Z ; std::runtime_error::runtime_error
	push	OFFSET __TI3?AVfailure@ios_base@std@@
	lea	eax, DWORD PTR $T24080[esp+156]
	push	eax
	mov	DWORD PTR $T24080[esp+160], OFFSET ??_7failure@ios_base@std@@6B@
	call	__CxxThrowException@8
$LN2@clear:

; 283  :         else
; 284  :             _THROW_NCEE(failure, "ios_base::eofbit set");

	push	OFFSET ??_C@_0BF@OOHOMBOF@ios_base?3?3eofbit?5set?$AA@
	lea	ecx, DWORD PTR $T24083[esp+156]
	call	??0?$basic_string@DU?$char_traits@D@std@@V?$allocator@D@2@@std@@QAE@PBD@Z ; std::basic_string<char,std::char_traits<char>,std::allocator<char> >::basic_string<char,std::char_traits<char>,std::allocator<char> >
	lea	ecx, DWORD PTR $T24083[esp+152]
	push	ecx
	lea	ecx, DWORD PTR $T24082[esp+156]
	mov	DWORD PTR __$EHRec$[esp+164], 2
	call	??0runtime_error@std@@QAE@ABV?$basic_string@DU?$char_traits@D@std@@V?$allocator@D@2@@1@@Z ; std::runtime_error::runtime_error
	push	OFFSET __TI3?AVfailure@ios_base@std@@
	lea	edx, DWORD PTR $T24082[esp+156]
	push	edx
	mov	DWORD PTR $T24082[esp+160], OFFSET ??_7failure@ios_base@std@@6B@
	call	__CxxThrowException@8
$LN1@clear:

; 285  :         }

	mov	ecx, DWORD PTR __$EHRec$[esp+152]
	mov	DWORD PTR fs:0, ecx
	pop	ecx
	add	esp, 148				; 00000094H
	ret	8
$LN24@clear:
_TEXT	ENDS
;	COMDAT text$x
text$x	SEGMENT
__unwindfunclet$?clear@ios_base@std@@QAEXH_N@Z$0:
	lea	ecx, DWORD PTR $T24079[ebp]
	jmp	??1?$basic_string@DU?$char_traits@D@std@@V?$allocator@D@2@@std@@QAE@XZ ; std::basic_string<char,std::char_traits<char>,std::allocator<char> >::~basic_string<char,std::char_traits<char>,std::allocator<char> >
__unwindfunclet$?clear@ios_base@std@@QAEXH_N@Z$1:
	lea	ecx, DWORD PTR $T24081[ebp]
	jmp	??1?$basic_string@DU?$char_traits@D@std@@V?$allocator@D@2@@std@@QAE@XZ ; std::basic_string<char,std::char_traits<char>,std::allocator<char> >::~basic_string<char,std::char_traits<char>,std::allocator<char> >
__unwindfunclet$?clear@ios_base@std@@QAEXH_N@Z$2:
	lea	ecx, DWORD PTR $T24083[ebp]
	jmp	??1?$basic_string@DU?$char_traits@D@std@@V?$allocator@D@2@@std@@QAE@XZ ; std::basic_string<char,std::char_traits<char>,std::allocator<char> >::~basic_string<char,std::char_traits<char>,std::allocator<char> >
__ehhandler$?clear@ios_base@std@@QAEXH_N@Z:
	mov	edx, DWORD PTR [esp+8]
	lea	eax, DWORD PTR [edx-136]
	mov	ecx, DWORD PTR [edx-140]
	xor	ecx, eax
	call	@__security_check_cookie@4
	mov	eax, OFFSET __ehfuncinfo$?clear@ios_base@std@@QAEXH_N@Z
	jmp	___CxxFrameHandler3
text$x	ENDS
?clear@ios_base@std@@QAEXH_N@Z ENDP			; std::ios_base::clear
; Function compile flags: /Ogtpy
;	COMDAT ??0failure@ios_base@std@@QAE@ABV012@@Z
_TEXT	SEGMENT
___that$ = 8						; size = 4
??0failure@ios_base@std@@QAE@ABV012@@Z PROC		; std::ios_base::failure::failure, COMDAT
; _this$ = ecx
	mov	eax, DWORD PTR ___that$[esp-4]
	push	esi
	push	eax
	mov	esi, ecx
	call	??0runtime_error@std@@QAE@ABV01@@Z
	mov	DWORD PTR [esi], OFFSET ??_7failure@ios_base@std@@6B@
	mov	eax, esi
	pop	esi
	ret	4
??0failure@ios_base@std@@QAE@ABV012@@Z ENDP		; std::ios_base::failure::failure
_TEXT	ENDS
PUBLIC	?clear@?$basic_ios@DU?$char_traits@D@std@@@std@@QAEXH_N@Z ; std::basic_ios<char,std::char_traits<char> >::clear
; Function compile flags: /Ogtpy
; File c:\program files\microsoft visual studio 8\vc\include\ios
;	COMDAT ?clear@?$basic_ios@DU?$char_traits@D@std@@@std@@QAEXH_N@Z
_TEXT	SEGMENT
__State$ = 8						; size = 4
__Reraise$ = 12						; size = 1
?clear@?$basic_ios@DU?$char_traits@D@std@@@std@@QAEXH_N@Z PROC ; std::basic_ios<char,std::char_traits<char> >::clear, COMDAT
; _this$ = ecx

; 43   : 		ios_base::clear((iostate)(_Mystrbuf == 0
; 44   : 			? (int)_State | (int)badbit : (int)_State), _Reraise);

	cmp	DWORD PTR [ecx+40], 0
	mov	eax, DWORD PTR __State$[esp-4]
	jne	SHORT $LN4@clear@2
	or	eax, 4
$LN4@clear@2:
	mov	DWORD PTR __State$[esp-4], eax
	jmp	?clear@ios_base@std@@QAEXH_N@Z		; std::ios_base::clear
?clear@?$basic_ios@DU?$char_traits@D@std@@@std@@QAEXH_N@Z ENDP ; std::basic_ios<char,std::char_traits<char> >::clear
_TEXT	ENDS
PUBLIC	__TI2?AVbad_cast@std@@
PUBLIC	??_C@_08EPJLHIJG@bad?5cast?$AA@			; `string'
PUBLIC	?_Psave@?$_Facetptr@V?$ctype@D@std@@@std@@2PBVfacet@locale@2@B ; std::_Facetptr<std::ctype<char> >::_Psave
PUBLIC	??$use_facet@V?$ctype@D@std@@@std@@YAABV?$ctype@D@0@ABVlocale@0@@Z ; std::use_facet<std::ctype<char> >
PUBLIC	__CTA2?AVbad_cast@std@@
PUBLIC	__CT??_R0?AVbad_cast@std@@@8??0bad_cast@std@@QAE@ABV01@@Z12
PUBLIC	??_R0?AVbad_cast@std@@@8			; std::bad_cast `RTTI Type Descriptor'
EXTRN	??0bad_cast@std@@QAE@PBD@Z:PROC			; std::bad_cast::bad_cast
EXTRN	?id@?$ctype@D@std@@2V0locale@2@A:DWORD		; std::ctype<char>::id
EXTRN	??1bad_cast@std@@UAE@XZ:PROC			; std::bad_cast::~bad_cast
EXTRN	??0bad_cast@std@@QAE@ABV01@@Z:PROC		; std::bad_cast::bad_cast
;	COMDAT ?_Psave@?$_Facetptr@V?$ctype@D@std@@@std@@2PBVfacet@locale@2@B
; File c:\program files\microsoft visual studio 8\vc\include\xlocale
_BSS	SEGMENT
?_Psave@?$_Facetptr@V?$ctype@D@std@@@std@@2PBVfacet@locale@2@B DD 01H DUP (?) ; std::_Facetptr<std::ctype<char> >::_Psave
_BSS	ENDS
;	COMDAT ??_R0?AVbad_cast@std@@@8
_DATA	SEGMENT
??_R0?AVbad_cast@std@@@8 DD FLAT:??_7type_info@@6B@	; std::bad_cast `RTTI Type Descriptor'
	DD	00H
	DB	'.?AVbad_cast@std@@', 00H
_DATA	ENDS
;	COMDAT __CT??_R0?AVbad_cast@std@@@8??0bad_cast@std@@QAE@ABV01@@Z12
xdata$x	SEGMENT
__CT??_R0?AVbad_cast@std@@@8??0bad_cast@std@@QAE@ABV01@@Z12 DD 00H
	DD	FLAT:??_R0?AVbad_cast@std@@@8
	DD	00H
	DD	0ffffffffH
	ORG $+4
	DD	0cH
	DD	FLAT:??0bad_cast@std@@QAE@ABV01@@Z
xdata$x	ENDS
;	COMDAT __CTA2?AVbad_cast@std@@
xdata$x	SEGMENT
__CTA2?AVbad_cast@std@@ DD 02H
	DD	FLAT:__CT??_R0?AVbad_cast@std@@@8??0bad_cast@std@@QAE@ABV01@@Z12
	DD	FLAT:__CT??_R0?AVexception@std@@@8??0exception@std@@QAE@ABV01@@Z12
xdata$x	ENDS
;	COMDAT __TI2?AVbad_cast@std@@
xdata$x	SEGMENT
__TI2?AVbad_cast@std@@ DD 00H
	DD	FLAT:??1bad_cast@std@@UAE@XZ
	DD	00H
	DD	FLAT:__CTA2?AVbad_cast@std@@
xdata$x	ENDS
;	COMDAT ??_C@_08EPJLHIJG@bad?5cast?$AA@
CONST	SEGMENT
??_C@_08EPJLHIJG@bad?5cast?$AA@ DB 'bad cast', 00H	; `string'
CONST	ENDS
;	COMDAT xdata$x
xdata$x	SEGMENT
__unwindtable$??$use_facet@V?$ctype@D@std@@@std@@YAABV?$ctype@D@0@ABVlocale@0@@Z DD 0ffffffffH
	DD	FLAT:__unwindfunclet$??$use_facet@V?$ctype@D@std@@@std@@YAABV?$ctype@D@0@ABVlocale@0@@Z$0
__ehfuncinfo$??$use_facet@V?$ctype@D@std@@@std@@YAABV?$ctype@D@0@ABVlocale@0@@Z DD 019930522H
	DD	01H
	DD	FLAT:__unwindtable$??$use_facet@V?$ctype@D@std@@@std@@YAABV?$ctype@D@0@ABVlocale@0@@Z
	DD	2 DUP(00H)
	DD	2 DUP(00H)
	DD	00H
	DD	01H
; Function compile flags: /Ogtpy
xdata$x	ENDS
;	COMDAT ??$use_facet@V?$ctype@D@std@@@std@@YAABV?$ctype@D@0@ABVlocale@0@@Z
_TEXT	SEGMENT
__Psave$18287 = -36					; size = 4
__Lock$24124 = -32					; size = 4
__Lock$18286 = -28					; size = 4
$T24116 = -24						; size = 12
__$EHRec$ = -12						; size = 12
__Loc$ = 8						; size = 4
??$use_facet@V?$ctype@D@std@@@std@@YAABV?$ctype@D@0@ABVlocale@0@@Z PROC ; std::use_facet<std::ctype<char> >, COMDAT

; 466  : 	{	// get facet reference from locale

	push	-1
	push	__ehhandler$??$use_facet@V?$ctype@D@std@@@std@@YAABV?$ctype@D@0@ABVlocale@0@@Z
	mov	eax, DWORD PTR fs:0
	push	eax
	sub	esp, 24					; 00000018H
	push	ebx
	push	esi
	push	edi
	mov	eax, DWORD PTR ___security_cookie
	xor	eax, esp
	push	eax
	lea	eax, DWORD PTR __$EHRec$[esp+52]
	mov	DWORD PTR fs:0, eax

; 467  : 	_BEGIN_LOCK(_LOCK_LOCALE)	// the thread lock, make get atomic

	push	0
	lea	ecx, DWORD PTR __Lock$18286[esp+56]
	call	??0_Lockit@std@@QAE@H@Z			; std::_Lockit::_Lockit

; 468  : 		const locale::facet *_Psave =
; 469  : 			_Facetptr<_Facet>::_Psave;	// static pointer to lazy facet
; 470  : 
; 471  : 		size_t _Id = _Facet::id;

	cmp	DWORD PTR ?id@?$ctype@D@std@@2V0locale@2@A, 0 ; std::ctype<char>::id
	mov	ebx, DWORD PTR ?_Psave@?$_Facetptr@V?$ctype@D@std@@@std@@2PBVfacet@locale@2@B ; std::_Facetptr<std::ctype<char> >::_Psave
	mov	DWORD PTR __$EHRec$[esp+60], 0
	mov	DWORD PTR __Psave$18287[esp+52], ebx
	jne	SHORT $LN11@use_facet
	push	0
	lea	ecx, DWORD PTR __Lock$24124[esp+56]
	call	??0_Lockit@std@@QAE@H@Z			; std::_Lockit::_Lockit
	cmp	DWORD PTR ?id@?$ctype@D@std@@2V0locale@2@A, 0 ; std::ctype<char>::id
	jne	SHORT $LN10@use_facet
	mov	eax, DWORD PTR ?_Id_cnt@id@locale@std@@0HA ; std::locale::id::_Id_cnt
	add	eax, 1
	mov	DWORD PTR ?_Id_cnt@id@locale@std@@0HA, eax ; std::locale::id::_Id_cnt
	mov	DWORD PTR ?id@?$ctype@D@std@@2V0locale@2@A, eax ; std::ctype<char>::id
$LN10@use_facet:
	lea	ecx, DWORD PTR __Lock$24124[esp+52]
	call	??1_Lockit@std@@QAE@XZ			; std::_Lockit::~_Lockit
$LN11@use_facet:

; 472  : 		const locale::facet *_Pf = _Loc._Getfacet(_Id);

	mov	eax, DWORD PTR __Loc$[esp+48]
	mov	edi, DWORD PTR ?id@?$ctype@D@std@@2V0locale@2@A ; std::ctype<char>::id
	mov	eax, DWORD PTR [eax]
	cmp	edi, DWORD PTR [eax+12]
	jae	SHORT $LN20@use_facet
	mov	ecx, DWORD PTR [eax+8]
	mov	esi, DWORD PTR [ecx+edi*4]
	test	esi, esi
	jne	SHORT $LN24@use_facet
$LN26@use_facet:
	cmp	BYTE PTR [eax+20], 0
	je	SHORT $LN16@use_facet
	call	?_Getgloballocale@locale@std@@CAPAV_Locimp@12@XZ ; std::locale::_Getgloballocale
	cmp	edi, DWORD PTR [eax+12]
	jae	SHORT $LN27@use_facet
	mov	edx, DWORD PTR [eax+8]
	mov	esi, DWORD PTR [edx+edi*4]
$LN16@use_facet:

; 473  : 
; 474  : 		if (_Pf != 0)

	test	esi, esi
	jne	SHORT $LN24@use_facet
$LN27@use_facet:

; 475  : 			;	// got facet from locale
; 476  : 		else if (_Psave != 0)

	test	ebx, ebx
	je	SHORT $LN4@use_facet

; 477  : 			_Pf = _Psave;	// lazy facet already allocated

	mov	esi, ebx
	jmp	SHORT $LN24@use_facet

; 472  : 		const locale::facet *_Pf = _Loc._Getfacet(_Id);

$LN20@use_facet:
	xor	esi, esi
	jmp	SHORT $LN26@use_facet
$LN4@use_facet:

; 478  : 		else if (_Facet::_Getcat(&_Psave) == (size_t)(-1))

	lea	eax, DWORD PTR __Psave$18287[esp+52]
	push	eax
	call	?_Getcat@?$ctype@D@std@@SAIPAPBVfacet@locale@2@@Z ; std::ctype<char>::_Getcat
	add	esp, 4
	cmp	eax, -1
	jne	SHORT $LN2@use_facet

; 479  : 
; 480  :  #if _HAS_EXCEPTIONS
; 481  : 		_THROW_NCEE(bad_cast, _EMPTY_ARGUMENT);	// lazy disallowed

	push	OFFSET ??_C@_08EPJLHIJG@bad?5cast?$AA@
	lea	ecx, DWORD PTR $T24116[esp+56]
	call	??0bad_cast@std@@QAE@PBD@Z		; std::bad_cast::bad_cast
	push	OFFSET __TI2?AVbad_cast@std@@
	lea	ecx, DWORD PTR $T24116[esp+56]
	push	ecx
	call	__CxxThrowException@8
$LN2@use_facet:

; 482  : 
; 483  : 	#else /* _HAS_EXCEPTIONS */
; 484  : 			abort();	// lazy disallowed
; 485  : 	#endif /* _HAS_EXCEPTIONS */
; 486  : 
; 487  : 		else
; 488  : 			{	// queue up lazy facet for destruction
; 489  : 			_Pf = _Psave;

	mov	esi, DWORD PTR __Psave$18287[esp+52]

; 490  : 			_Facetptr<_Facet>::_Psave = _Psave;
; 491  : 
; 492  : 			locale::facet *_Pfmod = (_Facet *)_Psave;
; 493  : 			_Pfmod->_Incref();

	mov	ecx, esi
	mov	DWORD PTR ?_Psave@?$_Facetptr@V?$ctype@D@std@@@std@@2PBVfacet@locale@2@B, esi ; std::_Facetptr<std::ctype<char> >::_Psave
	call	?_Incref@facet@locale@std@@QAEXXZ	; std::locale::facet::_Incref

; 494  : 			_Pfmod->_Register();

	push	esi
	call	?facet_Register@facet@locale@std@@CAXPAV123@@Z ; std::locale::facet::facet_Register
	add	esp, 4
$LN24@use_facet:

; 495  : 			}
; 496  : 
; 497  : 		return ((const _Facet&)(*_Pf));	// should be dynamic_cast

	lea	ecx, DWORD PTR __Lock$18286[esp+52]
	mov	DWORD PTR __$EHRec$[esp+60], -1
	call	??1_Lockit@std@@QAE@XZ			; std::_Lockit::~_Lockit
	mov	eax, esi

; 498  : 	_END_LOCK()
; 499  : 	}

	mov	ecx, DWORD PTR __$EHRec$[esp+52]
	mov	DWORD PTR fs:0, ecx
	pop	ecx
	pop	edi
	pop	esi
	pop	ebx
	add	esp, 36					; 00000024H
	ret	0
$LN29@use_facet:
_TEXT	ENDS
;	COMDAT text$x
text$x	SEGMENT
__unwindfunclet$??$use_facet@V?$ctype@D@std@@@std@@YAABV?$ctype@D@0@ABVlocale@0@@Z$0:
	lea	ecx, DWORD PTR __Lock$18286[ebp]
	jmp	??1_Lockit@std@@QAE@XZ			; std::_Lockit::~_Lockit
__ehhandler$??$use_facet@V?$ctype@D@std@@@std@@YAABV?$ctype@D@0@ABVlocale@0@@Z:
	mov	edx, DWORD PTR [esp+8]
	lea	eax, DWORD PTR [edx-36]
	mov	ecx, DWORD PTR [edx-40]
	xor	ecx, eax
	call	@__security_check_cookie@4
	mov	eax, OFFSET __ehfuncinfo$??$use_facet@V?$ctype@D@std@@@std@@YAABV?$ctype@D@0@ABVlocale@0@@Z
	jmp	___CxxFrameHandler3
text$x	ENDS
??$use_facet@V?$ctype@D@std@@@std@@YAABV?$ctype@D@0@ABVlocale@0@@Z ENDP ; std::use_facet<std::ctype<char> >
PUBLIC	??_7?$num_put@DV?$ostreambuf_iterator@DU?$char_traits@D@std@@@std@@@std@@6B@ ; std::num_put<char,std::ostreambuf_iterator<char,std::char_traits<char> > >::`vftable'
PUBLIC	_this$GSCopy$
PUBLIC	__$ArrayPad$
PUBLIC	??0?$num_put@DV?$ostreambuf_iterator@DU?$char_traits@D@std@@@std@@@std@@QAE@I@Z ; std::num_put<char,std::ostreambuf_iterator<char,std::char_traits<char> > >::num_put<char,std::ostreambuf_iterator<char,std::char_traits<char> > >
PUBLIC	??_R4?$num_put@DV?$ostreambuf_iterator@DU?$char_traits@D@std@@@std@@@std@@6B@ ; std::num_put<char,std::ostreambuf_iterator<char,std::char_traits<char> > >::`RTTI Complete Object Locator'
PUBLIC	??_R0?AV?$num_put@DV?$ostreambuf_iterator@DU?$char_traits@D@std@@@std@@@std@@@8 ; std::num_put<char,std::ostreambuf_iterator<char,std::char_traits<char> > > `RTTI Type Descriptor'
PUBLIC	??_R3?$num_put@DV?$ostreambuf_iterator@DU?$char_traits@D@std@@@std@@@std@@8 ; std::num_put<char,std::ostreambuf_iterator<char,std::char_traits<char> > >::`RTTI Class Hierarchy Descriptor'
PUBLIC	??_R2?$num_put@DV?$ostreambuf_iterator@DU?$char_traits@D@std@@@std@@@std@@8 ; std::num_put<char,std::ostreambuf_iterator<char,std::char_traits<char> > >::`RTTI Base Class Array'
PUBLIC	??_R1A@?0A@EA@?$num_put@DV?$ostreambuf_iterator@DU?$char_traits@D@std@@@std@@@std@@8 ; std::num_put<char,std::ostreambuf_iterator<char,std::char_traits<char> > >::`RTTI Base Class Descriptor at (0,-1,0,64)'
PUBLIC	?do_put@?$num_put@DV?$ostreambuf_iterator@DU?$char_traits@D@std@@@std@@@std@@MBE?AV?$ostreambuf_iterator@DU?$char_traits@D@std@@@2@V32@AAVios_base@2@DPBX@Z ; std::num_put<char,std::ostreambuf_iterator<char,std::char_traits<char> > >::do_put
PUBLIC	?do_put@?$num_put@DV?$ostreambuf_iterator@DU?$char_traits@D@std@@@std@@@std@@MBE?AV?$ostreambuf_iterator@DU?$char_traits@D@std@@@2@V32@AAVios_base@2@DO@Z ; std::num_put<char,std::ostreambuf_iterator<char,std::char_traits<char> > >::do_put
PUBLIC	?do_put@?$num_put@DV?$ostreambuf_iterator@DU?$char_traits@D@std@@@std@@@std@@MBE?AV?$ostreambuf_iterator@DU?$char_traits@D@std@@@2@V32@AAVios_base@2@DN@Z ; std::num_put<char,std::ostreambuf_iterator<char,std::char_traits<char> > >::do_put
PUBLIC	?do_put@?$num_put@DV?$ostreambuf_iterator@DU?$char_traits@D@std@@@std@@@std@@MBE?AV?$ostreambuf_iterator@DU?$char_traits@D@std@@@2@V32@AAVios_base@2@D_K@Z ; std::num_put<char,std::ostreambuf_iterator<char,std::char_traits<char> > >::do_put
PUBLIC	?do_put@?$num_put@DV?$ostreambuf_iterator@DU?$char_traits@D@std@@@std@@@std@@MBE?AV?$ostreambuf_iterator@DU?$char_traits@D@std@@@2@V32@AAVios_base@2@D_J@Z ; std::num_put<char,std::ostreambuf_iterator<char,std::char_traits<char> > >::do_put
PUBLIC	?do_put@?$num_put@DV?$ostreambuf_iterator@DU?$char_traits@D@std@@@std@@@std@@MBE?AV?$ostreambuf_iterator@DU?$char_traits@D@std@@@2@V32@AAVios_base@2@DK@Z ; std::num_put<char,std::ostreambuf_iterator<char,std::char_traits<char> > >::do_put
PUBLIC	?do_put@?$num_put@DV?$ostreambuf_iterator@DU?$char_traits@D@std@@@std@@@std@@MBE?AV?$ostreambuf_iterator@DU?$char_traits@D@std@@@2@V32@AAVios_base@2@DJ@Z ; std::num_put<char,std::ostreambuf_iterator<char,std::char_traits<char> > >::do_put
PUBLIC	?do_put@?$num_put@DV?$ostreambuf_iterator@DU?$char_traits@D@std@@@std@@@std@@MBE?AV?$ostreambuf_iterator@DU?$char_traits@D@std@@@2@V32@AAVios_base@2@D_N@Z ; std::num_put<char,std::ostreambuf_iterator<char,std::char_traits<char> > >::do_put
EXTRN	??_E?$num_put@DV?$ostreambuf_iterator@DU?$char_traits@D@std@@@std@@@std@@MAEPAXI@Z:PROC ; std::num_put<char,std::ostreambuf_iterator<char,std::char_traits<char> > >::`vector deleting destructor'
;	COMDAT ??_R1A@?0A@EA@?$num_put@DV?$ostreambuf_iterator@DU?$char_traits@D@std@@@std@@@std@@8
; File c:\program files\microsoft visual studio 8\vc\include\xlocinfo
rdata$r	SEGMENT
??_R1A@?0A@EA@?$num_put@DV?$ostreambuf_iterator@DU?$char_traits@D@std@@@std@@@std@@8 DD FLAT:??_R0?AV?$num_put@DV?$ostreambuf_iterator@DU?$char_traits@D@std@@@std@@@std@@@8 ; std::num_put<char,std::ostreambuf_iterator<char,std::char_traits<char> > >::`RTTI Base Class Descriptor at (0,-1,0,64)'
	DD	01H
	DD	00H
	DD	0ffffffffH
	DD	00H
	DD	040H
	DD	FLAT:??_R3?$num_put@DV?$ostreambuf_iterator@DU?$char_traits@D@std@@@std@@@std@@8
rdata$r	ENDS
;	COMDAT ??_R2?$num_put@DV?$ostreambuf_iterator@DU?$char_traits@D@std@@@std@@@std@@8
rdata$r	SEGMENT
??_R2?$num_put@DV?$ostreambuf_iterator@DU?$char_traits@D@std@@@std@@@std@@8 DD FLAT:??_R1A@?0A@EA@?$num_put@DV?$ostreambuf_iterator@DU?$char_traits@D@std@@@std@@@std@@8 ; std::num_put<char,std::ostreambuf_iterator<char,std::char_traits<char> > >::`RTTI Base Class Array'
	DD	FLAT:??_R1A@?0A@EA@facet@locale@std@@8
rdata$r	ENDS
;	COMDAT ??_R3?$num_put@DV?$ostreambuf_iterator@DU?$char_traits@D@std@@@std@@@std@@8
rdata$r	SEGMENT
??_R3?$num_put@DV?$ostreambuf_iterator@DU?$char_traits@D@std@@@std@@@std@@8 DD 00H ; std::num_put<char,std::ostreambuf_iterator<char,std::char_traits<char> > >::`RTTI Class Hierarchy Descriptor'
	DD	00H
	DD	02H
	DD	FLAT:??_R2?$num_put@DV?$ostreambuf_iterator@DU?$char_traits@D@std@@@std@@@std@@8
rdata$r	ENDS
;	COMDAT ??_R0?AV?$num_put@DV?$ostreambuf_iterator@DU?$char_traits@D@std@@@std@@@std@@@8
_DATA	SEGMENT
??_R0?AV?$num_put@DV?$ostreambuf_iterator@DU?$char_traits@D@std@@@std@@@std@@@8 DD FLAT:??_7type_info@@6B@ ; std::num_put<char,std::ostreambuf_iterator<char,std::char_traits<char> > > `RTTI Type Descriptor'
	DD	00H
	DB	'.?AV?$num_put@DV?$ostreambuf_iterator@DU?$char_traits@D@'
	DB	'std@@@std@@@std@@', 00H
_DATA	ENDS
;	COMDAT ??_R4?$num_put@DV?$ostreambuf_iterator@DU?$char_traits@D@std@@@std@@@std@@6B@
rdata$r	SEGMENT
??_R4?$num_put@DV?$ostreambuf_iterator@DU?$char_traits@D@std@@@std@@@std@@6B@ DD 00H ; std::num_put<char,std::ostreambuf_iterator<char,std::char_traits<char> > >::`RTTI Complete Object Locator'
	DD	00H
	DD	00H
	DD	FLAT:??_R0?AV?$num_put@DV?$ostreambuf_iterator@DU?$char_traits@D@std@@@std@@@std@@@8
	DD	FLAT:??_R3?$num_put@DV?$ostreambuf_iterator@DU?$char_traits@D@std@@@std@@@std@@8
rdata$r	ENDS
;	COMDAT ??_7?$num_put@DV?$ostreambuf_iterator@DU?$char_traits@D@std@@@std@@@std@@6B@
CONST	SEGMENT
??_7?$num_put@DV?$ostreambuf_iterator@DU?$char_traits@D@std@@@std@@@std@@6B@ DD FLAT:??_R4?$num_put@DV?$ostreambuf_iterator@DU?$char_traits@D@std@@@std@@@std@@6B@ ; std::num_put<char,std::ostreambuf_iterator<char,std::char_traits<char> > >::`vftable'
	DD	FLAT:??_E?$num_put@DV?$ostreambuf_iterator@DU?$char_traits@D@std@@@std@@@std@@MAEPAXI@Z
	DD	FLAT:?do_put@?$num_put@DV?$ostreambuf_iterator@DU?$char_traits@D@std@@@std@@@std@@MBE?AV?$ostreambuf_iterator@DU?$char_traits@D@std@@@2@V32@AAVios_base@2@DPBX@Z
	DD	FLAT:?do_put@?$num_put@DV?$ostreambuf_iterator@DU?$char_traits@D@std@@@std@@@std@@MBE?AV?$ostreambuf_iterator@DU?$char_traits@D@std@@@2@V32@AAVios_base@2@DO@Z
	DD	FLAT:?do_put@?$num_put@DV?$ostreambuf_iterator@DU?$char_traits@D@std@@@std@@@std@@MBE?AV?$ostreambuf_iterator@DU?$char_traits@D@std@@@2@V32@AAVios_base@2@DN@Z
	DD	FLAT:?do_put@?$num_put@DV?$ostreambuf_iterator@DU?$char_traits@D@std@@@std@@@std@@MBE?AV?$ostreambuf_iterator@DU?$char_traits@D@std@@@2@V32@AAVios_base@2@D_K@Z
	DD	FLAT:?do_put@?$num_put@DV?$ostreambuf_iterator@DU?$char_traits@D@std@@@std@@@std@@MBE?AV?$ostreambuf_iterator@DU?$char_traits@D@std@@@2@V32@AAVios_base@2@D_J@Z
	DD	FLAT:?do_put@?$num_put@DV?$ostreambuf_iterator@DU?$char_traits@D@std@@@std@@@std@@MBE?AV?$ostreambuf_iterator@DU?$char_traits@D@std@@@2@V32@AAVios_base@2@DK@Z
	DD	FLAT:?do_put@?$num_put@DV?$ostreambuf_iterator@DU?$char_traits@D@std@@@std@@@std@@MBE?AV?$ostreambuf_iterator@DU?$char_traits@D@std@@@2@V32@AAVios_base@2@DJ@Z
	DD	FLAT:?do_put@?$num_put@DV?$ostreambuf_iterator@DU?$char_traits@D@std@@@std@@@std@@MBE?AV?$ostreambuf_iterator@DU?$char_traits@D@std@@@2@V32@AAVios_base@2@D_N@Z
CONST	ENDS
;	COMDAT xdata$x
xdata$x	SEGMENT
__unwindtable$??0?$num_put@DV?$ostreambuf_iterator@DU?$char_traits@D@std@@@std@@@std@@QAE@I@Z DD 0ffffffffH
	DD	FLAT:__unwindfunclet$??0?$num_put@DV?$ostreambuf_iterator@DU?$char_traits@D@std@@@std@@@std@@QAE@I@Z$0
__ehfuncinfo$??0?$num_put@DV?$ostreambuf_iterator@DU?$char_traits@D@std@@@std@@@std@@QAE@I@Z DD 019930522H
	DD	01H
	DD	FLAT:__unwindtable$??0?$num_put@DV?$ostreambuf_iterator@DU?$char_traits@D@std@@@std@@@std@@QAE@I@Z
	DD	2 DUP(00H)
	DD	2 DUP(00H)
	DD	00H
	DD	01H
; Function compile flags: /Ogtpy
; File c:\program files\microsoft visual studio 8\vc\include\xlocnum
xdata$x	ENDS
;	COMDAT ??0?$num_put@DV?$ostreambuf_iterator@DU?$char_traits@D@std@@@std@@@std@@QAE@I@Z
_TEXT	SEGMENT
_this$GSCopy$ = -136					; size = 4
__Lobj$18714 = -132					; size = 116
__$ArrayPad$ = -16					; size = 4
__$EHRec$ = -12						; size = 12
__Refs$ = 8						; size = 4
??0?$num_put@DV?$ostreambuf_iterator@DU?$char_traits@D@std@@@std@@@std@@QAE@I@Z PROC ; std::num_put<char,std::ostreambuf_iterator<char,std::char_traits<char> > >::num_put<char,std::ostreambuf_iterator<char,std::char_traits<char> > >, COMDAT
; _this$ = ecx

; 862  : 		{	// construct from current locale

	push	-1
	push	__ehhandler$??0?$num_put@DV?$ostreambuf_iterator@DU?$char_traits@D@std@@@std@@@std@@QAE@I@Z
	mov	eax, DWORD PTR fs:0
	push	eax
	sub	esp, 124				; 0000007cH
	mov	eax, DWORD PTR ___security_cookie
	xor	eax, esp
	mov	DWORD PTR __$ArrayPad$[esp+136], eax
	push	esi
	mov	eax, DWORD PTR ___security_cookie
	xor	eax, esp
	push	eax
	lea	eax, DWORD PTR __$EHRec$[esp+144]
	mov	DWORD PTR fs:0, eax
	mov	eax, DWORD PTR __Refs$[esp+140]
	mov	esi, ecx
	mov	DWORD PTR _this$GSCopy$[esp+144], esi
	mov	DWORD PTR [esi+4], eax

; 863  : 		_BEGIN_LOCINFO(_Lobj)

	push	OFFSET ??_C@_01GFHCPBMG@C?$AA@
	lea	ecx, DWORD PTR __Lobj$18714[esp+148]
	mov	DWORD PTR __$EHRec$[esp+156], 0
	mov	DWORD PTR [esi], OFFSET ??_7?$num_put@DV?$ostreambuf_iterator@DU?$char_traits@D@std@@@std@@@std@@6B@
	call	??0_Locinfo@std@@QAE@PBD@Z		; std::_Locinfo::_Locinfo

; 864  : 			_Init(_Lobj);

	call	__Getcvt

; 865  : 		_END_LOCINFO()

	lea	ecx, DWORD PTR __Lobj$18714[esp+144]
	mov	DWORD PTR [esi+8], eax
	mov	DWORD PTR [esi+12], edx
	call	??1_Locinfo@std@@QAE@XZ			; std::_Locinfo::~_Locinfo

; 866  : 		}

	mov	eax, esi
	mov	ecx, DWORD PTR __$EHRec$[esp+144]
	mov	DWORD PTR fs:0, ecx
	pop	ecx
	pop	esi
	mov	ecx, DWORD PTR __$ArrayPad$[esp+136]
	xor	ecx, esp
	call	@__security_check_cookie@4
	add	esp, 136				; 00000088H
	ret	4
_TEXT	ENDS
;	COMDAT text$x
text$x	SEGMENT
__unwindfunclet$??0?$num_put@DV?$ostreambuf_iterator@DU?$char_traits@D@std@@@std@@@std@@QAE@I@Z$0:
	mov	ecx, DWORD PTR _this$GSCopy$[ebp]
	jmp	??1facet@locale@std@@UAE@XZ		; std::locale::facet::~facet
__ehhandler$??0?$num_put@DV?$ostreambuf_iterator@DU?$char_traits@D@std@@@std@@@std@@QAE@I@Z:
	mov	edx, DWORD PTR [esp+8]
	lea	eax, DWORD PTR [edx-128]
	mov	ecx, DWORD PTR [edx-132]
	xor	ecx, eax
	call	@__security_check_cookie@4
	add	eax, 4
	mov	ecx, DWORD PTR [edx-4]
	xor	ecx, eax
	call	@__security_check_cookie@4
	mov	eax, OFFSET __ehfuncinfo$??0?$num_put@DV?$ostreambuf_iterator@DU?$char_traits@D@std@@@std@@@std@@QAE@I@Z
	jmp	___CxxFrameHandler3
text$x	ENDS
??0?$num_put@DV?$ostreambuf_iterator@DU?$char_traits@D@std@@@std@@@std@@QAE@I@Z ENDP ; std::num_put<char,std::ostreambuf_iterator<char,std::char_traits<char> > >::num_put<char,std::ostreambuf_iterator<char,std::char_traits<char> > >
PUBLIC	?assign@?$char_traits@D@std@@SAPADPADID@Z	; std::char_traits<char>::assign
EXTRN	_memset:PROC
; Function compile flags: /Ogtpy
; File c:\program files\microsoft visual studio 8\vc\include\iosfwd
;	COMDAT ?assign@?$char_traits@D@std@@SAPADPADID@Z
_TEXT	SEGMENT
__First$ = 8						; size = 4
__Count$ = 12						; size = 4
__Ch$ = 16						; size = 1
?assign@?$char_traits@D@std@@SAPADPADID@Z PROC		; std::char_traits<char>::assign, COMDAT

; 488  : //		_DEBUG_POINTER(_First);
; 489  : 		return ((_Elem *)::memset(_First, _Ch, _Count));

	mov	eax, DWORD PTR __Count$[esp-4]
	movsx	ecx, BYTE PTR __Ch$[esp-4]
	mov	edx, DWORD PTR __First$[esp-4]
	push	eax
	push	ecx
	push	edx
	call	_memset
	add	esp, 12					; 0000000cH

; 490  : 		}

	ret	0
?assign@?$char_traits@D@std@@SAPADPADID@Z ENDP		; std::char_traits<char>::assign
_TEXT	ENDS
PUBLIC	?_Getlconv@_Locinfo@std@@QBEPBUlconv@@XZ	; std::_Locinfo::_Getlconv
EXTRN	_localeconv:PROC
; Function compile flags: /Ogtpy
; File c:\program files\microsoft visual studio 8\vc\include\xlocinfo
;	COMDAT ?_Getlconv@_Locinfo@std@@QBEPBUlconv@@XZ
_TEXT	SEGMENT
?_Getlconv@_Locinfo@std@@QBEPBUlconv@@XZ PROC		; std::_Locinfo::_Getlconv, COMDAT
; _this$ = ecx

; 125  : 		return (localeconv());

	jmp	_localeconv
?_Getlconv@_Locinfo@std@@QBEPBUlconv@@XZ ENDP		; std::_Locinfo::_Getlconv
_TEXT	ENDS
PUBLIC	??_C@_05LAPONLG@false?$AA@			; `string'
PUBLIC	?_Getfalse@_Locinfo@std@@QBEPBDXZ		; std::_Locinfo::_Getfalse
;	COMDAT ??_C@_05LAPONLG@false?$AA@
CONST	SEGMENT
??_C@_05LAPONLG@false?$AA@ DB 'false', 00H		; `string'
; Function compile flags: /Ogtpy
CONST	ENDS
;	COMDAT ?_Getfalse@_Locinfo@std@@QBEPBDXZ
_TEXT	SEGMENT
?_Getfalse@_Locinfo@std@@QBEPBDXZ PROC			; std::_Locinfo::_Getfalse, COMDAT
; _this$ = ecx

; 163  : 		return ("false");

	mov	eax, OFFSET ??_C@_05LAPONLG@false?$AA@

; 164  : 		}

	ret	0
?_Getfalse@_Locinfo@std@@QBEPBDXZ ENDP			; std::_Locinfo::_Getfalse
_TEXT	ENDS
PUBLIC	??_C@_04LOAJBDKD@true?$AA@			; `string'
PUBLIC	?_Gettrue@_Locinfo@std@@QBEPBDXZ		; std::_Locinfo::_Gettrue
;	COMDAT ??_C@_04LOAJBDKD@true?$AA@
CONST	SEGMENT
??_C@_04LOAJBDKD@true?$AA@ DB 'true', 00H		; `string'
; Function compile flags: /Ogtpy
CONST	ENDS
;	COMDAT ?_Gettrue@_Locinfo@std@@QBEPBDXZ
_TEXT	SEGMENT
?_Gettrue@_Locinfo@std@@QBEPBDXZ PROC			; std::_Locinfo::_Gettrue, COMDAT
; _this$ = ecx

; 168  : 		return ("true");

	mov	eax, OFFSET ??_C@_04LOAJBDKD@true?$AA@

; 169  : 		}

	ret	0
?_Gettrue@_Locinfo@std@@QBEPBDXZ ENDP			; std::_Locinfo::_Gettrue
_TEXT	ENDS
PUBLIC	?precision@ios_base@std@@QBEHXZ			; std::ios_base::precision
; Function compile flags: /Ogtpy
; File c:\program files\microsoft visual studio 8\vc\include\xiosbase
;	COMDAT ?precision@ios_base@std@@QBEHXZ
_TEXT	SEGMENT
?precision@ios_base@std@@QBEHXZ PROC			; std::ios_base::precision, COMDAT
; _this$ = ecx

; 395  : 		return (_Prec);

	mov	eax, DWORD PTR [ecx+20]

; 396  : 		}

	ret	0
?precision@ios_base@std@@QBEHXZ ENDP			; std::ios_base::precision
_TEXT	ENDS
PUBLIC	??1?$num_put@DV?$ostreambuf_iterator@DU?$char_traits@D@std@@@std@@@std@@MAE@XZ ; std::num_put<char,std::ostreambuf_iterator<char,std::char_traits<char> > >::~num_put<char,std::ostreambuf_iterator<char,std::char_traits<char> > >
; Function compile flags: /Ogtpy
; File c:\program files\microsoft visual studio 8\vc\include\xlocnum
;	COMDAT ??1?$num_put@DV?$ostreambuf_iterator@DU?$char_traits@D@std@@@std@@@std@@MAE@XZ
_TEXT	SEGMENT
??1?$num_put@DV?$ostreambuf_iterator@DU?$char_traits@D@std@@@std@@@std@@MAE@XZ PROC ; std::num_put<char,std::ostreambuf_iterator<char,std::char_traits<char> > >::~num_put<char,std::ostreambuf_iterator<char,std::char_traits<char> > >, COMDAT
; _this$ = ecx

; 849  : 		}

	mov	DWORD PTR [ecx], OFFSET ??_7facet@locale@std@@6B@
	ret	0
??1?$num_put@DV?$ostreambuf_iterator@DU?$char_traits@D@std@@@std@@@std@@MAE@XZ ENDP ; std::num_put<char,std::ostreambuf_iterator<char,std::char_traits<char> > >::~num_put<char,std::ostreambuf_iterator<char,std::char_traits<char> > >
; Function compile flags: /Ogtpy
_TEXT	ENDS
;	COMDAT ??_G?$num_put@DV?$ostreambuf_iterator@DU?$char_traits@D@std@@@std@@@std@@MAEPAXI@Z
_TEXT	SEGMENT
___flags$ = 8						; size = 4
??_G?$num_put@DV?$ostreambuf_iterator@DU?$char_traits@D@std@@@std@@@std@@MAEPAXI@Z PROC ; std::num_put<char,std::ostreambuf_iterator<char,std::char_traits<char> > >::`scalar deleting destructor', COMDAT
; _this$ = ecx
	test	BYTE PTR ___flags$[esp-4], 1
	push	esi
	mov	esi, ecx
	mov	DWORD PTR [esi], OFFSET ??_7facet@locale@std@@6B@
	je	SHORT $LN8@scalar@7
	push	esi
	call	??3@YAXPAX@Z				; operator delete
	add	esp, 4
$LN8@scalar@7:
	mov	eax, esi
	pop	esi
	ret	4
??_G?$num_put@DV?$ostreambuf_iterator@DU?$char_traits@D@std@@@std@@@std@@MAEPAXI@Z ENDP ; std::num_put<char,std::ostreambuf_iterator<char,std::char_traits<char> > >::`scalar deleting destructor'
_TEXT	ENDS
PUBLIC	?_Ffmt@?$num_put@DV?$ostreambuf_iterator@DU?$char_traits@D@std@@@std@@@std@@ABAPADPADDH@Z ; std::num_put<char,std::ostreambuf_iterator<char,std::char_traits<char> > >::_Ffmt
; Function compile flags: /Ogtpy
;	COMDAT ?_Ffmt@?$num_put@DV?$ostreambuf_iterator@DU?$char_traits@D@std@@@std@@@std@@ABAPADPADDH@Z
_TEXT	SEGMENT
_this$ = 8						; size = 4
__Fmt$ = 12						; size = 4
__Spec$ = 16						; size = 1
__Flags$ = 20						; size = 4
?_Ffmt@?$num_put@DV?$ostreambuf_iterator@DU?$char_traits@D@std@@@std@@@std@@ABAPADPADDH@Z PROC ; std::num_put<char,std::ostreambuf_iterator<char,std::char_traits<char> > >::_Ffmt, COMDAT

; 1095 : 		char *_Ptr = _Fmt;
; 1096 : 		*_Ptr++ = '%';

	mov	eax, DWORD PTR __Fmt$[esp-4]
	push	ebx

; 1097 : 
; 1098 : 		if (_Flags & ios_base::showpos)

	mov	ebx, DWORD PTR __Flags$[esp]
	test	bl, 32					; 00000020H
	mov	BYTE PTR [eax], 37			; 00000025H
	lea	ecx, DWORD PTR [eax+1]
	je	SHORT $LN3@Ffmt

; 1099 : 			*_Ptr++ = '+';

	mov	BYTE PTR [ecx], 43			; 0000002bH
	add	ecx, 1
$LN3@Ffmt:

; 1100 : 		if (_Flags & ios_base::showpoint)

	test	bl, 16					; 00000010H
	je	SHORT $LN2@Ffmt

; 1101 : 			*_Ptr++ = '#';

	mov	BYTE PTR [ecx], 35			; 00000023H
	add	ecx, 1
$LN2@Ffmt:

; 1102 : 		*_Ptr++ = '.';
; 1103 : 		*_Ptr++ = '*';	// for precision argument
; 1104 : 		if (_Spec != '\0')

	mov	dl, BYTE PTR __Spec$[esp]
	mov	BYTE PTR [ecx], 46			; 0000002eH
	add	ecx, 1
	mov	BYTE PTR [ecx], 42			; 0000002aH
	add	ecx, 1
	test	dl, dl
	je	SHORT $LN1@Ffmt

; 1105 : 			*_Ptr++ = _Spec;	// 'L' qualifier for long double only

	mov	BYTE PTR [ecx], dl
	add	ecx, 1
$LN1@Ffmt:

; 1106 : 
; 1107 : 		ios_base::fmtflags _Ffl = _Flags & ios_base::floatfield;

	and	ebx, 12288				; 00003000H
	mov	edx, ebx

; 1108 : 		*_Ptr++ = _Ffl == ios_base::fixed ? 'f'
; 1109 : 			: _Ffl == ios_base::scientific ? 'e' : 'g';	// specifier

	cmp	edx, 8192				; 00002000H
	pop	ebx
	jne	SHORT $LN6@Ffmt
	mov	dl, 102					; 00000066H
	mov	BYTE PTR [ecx], dl

; 1110 : 		*_Ptr = '\0';

	mov	BYTE PTR [ecx+1], 0

; 1111 : 		return (_Fmt);
; 1112 : 		}

	ret	0
$LN6@Ffmt:

; 1108 : 		*_Ptr++ = _Ffl == ios_base::fixed ? 'f'
; 1109 : 			: _Ffl == ios_base::scientific ? 'e' : 'g';	// specifier

	cmp	edx, 4096				; 00001000H
	setne	dl
	lea	edx, DWORD PTR [edx+edx+101]
	mov	BYTE PTR [ecx], dl

; 1110 : 		*_Ptr = '\0';

	mov	BYTE PTR [ecx+1], 0

; 1111 : 		return (_Fmt);
; 1112 : 		}

	ret	0
?_Ffmt@?$num_put@DV?$ostreambuf_iterator@DU?$char_traits@D@std@@@std@@@std@@ABAPADPADDH@Z ENDP ; std::num_put<char,std::ostreambuf_iterator<char,std::char_traits<char> > >::_Ffmt
_TEXT	ENDS
PUBLIC	?_Ifmt@?$num_put@DV?$ostreambuf_iterator@DU?$char_traits@D@std@@@std@@@std@@ABAPADPADPBDH@Z ; std::num_put<char,std::ostreambuf_iterator<char,std::char_traits<char> > >::_Ifmt
; Function compile flags: /Ogtpy
;	COMDAT ?_Ifmt@?$num_put@DV?$ostreambuf_iterator@DU?$char_traits@D@std@@@std@@@std@@ABAPADPADPBDH@Z
_TEXT	SEGMENT
_this$ = 8						; size = 4
__Fmt$ = 12						; size = 4
__Spec$ = 16						; size = 4
__Flags$ = 20						; size = 4
?_Ifmt@?$num_put@DV?$ostreambuf_iterator@DU?$char_traits@D@std@@@std@@@std@@ABAPADPADPBDH@Z PROC ; std::num_put<char,std::ostreambuf_iterator<char,std::char_traits<char> > >::_Ifmt, COMDAT

; 1237 : 		char *_Ptr = _Fmt;
; 1238 : 		*_Ptr++ = '%';

	mov	eax, DWORD PTR __Fmt$[esp-4]

; 1239 : 
; 1240 : 		if (_Flags & ios_base::showpos)

	mov	edx, DWORD PTR __Flags$[esp-4]
	test	dl, 32					; 00000020H
	mov	BYTE PTR [eax], 37			; 00000025H
	lea	ecx, DWORD PTR [eax+1]
	je	SHORT $LN4@Ifmt

; 1241 : 			*_Ptr++ = '+';

	mov	BYTE PTR [ecx], 43			; 0000002bH
	add	ecx, 1
$LN4@Ifmt:

; 1242 : 		if (_Flags & ios_base::showbase)

	test	dl, 8
	je	SHORT $LN3@Ifmt

; 1243 : 			*_Ptr++ = '#';

	mov	BYTE PTR [ecx], 35			; 00000023H
	add	ecx, 1
$LN3@Ifmt:
	push	ebx
	push	esi
	push	edi

; 1244 : 		if (_Spec[0] != 'L')

	mov	edi, DWORD PTR __Spec$[esp+8]
	mov	bl, BYTE PTR [edi]
	cmp	bl, 76					; 0000004cH
	je	SHORT $LN2@Ifmt

; 1245 : 			*_Ptr++ = _Spec[0];	// qualifier

	mov	BYTE PTR [ecx], bl

; 1246 : 		else

	jmp	SHORT $LN11@Ifmt
$LN2@Ifmt:

; 1247 : 			{	/* change L to I64 */
; 1248 : 			*_Ptr++ = 'I';

	mov	BYTE PTR [ecx], 73			; 00000049H
	add	ecx, 1

; 1249 : 			*_Ptr++ = '6';

	mov	BYTE PTR [ecx], 54			; 00000036H
	add	ecx, 1

; 1250 : 			*_Ptr++ = '4';

	mov	BYTE PTR [ecx], 52			; 00000034H
$LN11@Ifmt:

; 1251 : 			}
; 1252 : 
; 1253 : 		ios_base::fmtflags _Basefield = _Flags & ios_base::basefield;

	mov	esi, edx
	and	esi, 3584				; 00000e00H
	add	ecx, 1

; 1254 : 		*_Ptr++ = _Basefield == ios_base::oct ? 'o'
; 1255 : 			: _Basefield != ios_base::hex ? _Spec[1]	// 'd' or 'u'
; 1256 : 			: _Flags & ios_base::uppercase ? 'X' : 'x';

	cmp	esi, 1024				; 00000400H
	jne	SHORT $LN9@Ifmt
	pop	edi
	mov	dl, 111					; 0000006fH
	pop	esi
	mov	BYTE PTR [ecx], dl

; 1257 : 		*_Ptr = '\0';

	mov	BYTE PTR [ecx+1], 0
	pop	ebx

; 1258 : 		return (_Fmt);
; 1259 : 		}

	ret	0
$LN9@Ifmt:

; 1254 : 		*_Ptr++ = _Basefield == ios_base::oct ? 'o'
; 1255 : 			: _Basefield != ios_base::hex ? _Spec[1]	// 'd' or 'u'
; 1256 : 			: _Flags & ios_base::uppercase ? 'X' : 'x';

	cmp	esi, 2048				; 00000800H
	je	SHORT $LN7@Ifmt
	mov	dl, BYTE PTR [edi+1]
	pop	edi
	pop	esi
	mov	BYTE PTR [ecx], dl

; 1257 : 		*_Ptr = '\0';

	mov	BYTE PTR [ecx+1], 0
	pop	ebx

; 1258 : 		return (_Fmt);
; 1259 : 		}

	ret	0
$LN7@Ifmt:

; 1254 : 		*_Ptr++ = _Basefield == ios_base::oct ? 'o'
; 1255 : 			: _Basefield != ios_base::hex ? _Spec[1]	// 'd' or 'u'
; 1256 : 			: _Flags & ios_base::uppercase ? 'X' : 'x';

	add	dl, dl
	add	dl, dl
	add	dl, dl
	not	dl
	and	dl, 32					; 00000020H
	pop	edi
	or	dl, 88					; 00000058H
	pop	esi
	mov	BYTE PTR [ecx], dl

; 1257 : 		*_Ptr = '\0';

	mov	BYTE PTR [ecx+1], 0
	pop	ebx

; 1258 : 		return (_Fmt);
; 1259 : 		}

	ret	0
?_Ifmt@?$num_put@DV?$ostreambuf_iterator@DU?$char_traits@D@std@@@std@@@std@@ABAPADPADPBDH@Z ENDP ; std::num_put<char,std::ostreambuf_iterator<char,std::char_traits<char> > >::_Ifmt
_TEXT	ENDS
PUBLIC	??A?$basic_string@DU?$char_traits@D@std@@V?$allocator@D@2@@std@@QAEAADI@Z ; std::basic_string<char,std::char_traits<char>,std::allocator<char> >::operator[]
; Function compile flags: /Ogtpy
; File c:\program files\microsoft visual studio 8\vc\include\xstring
;	COMDAT ??A?$basic_string@DU?$char_traits@D@std@@V?$allocator@D@2@@std@@QAEAADI@Z
_TEXT	SEGMENT
__Off$ = 8						; size = 4
??A?$basic_string@DU?$char_traits@D@std@@V?$allocator@D@2@@std@@QAEAADI@Z PROC ; std::basic_string<char,std::char_traits<char>,std::allocator<char> >::operator[], COMDAT
; _this$ = ecx

; 1490 : 		{	// subscript mutable sequence

	push	esi
	push	edi

; 1491 : 
; 1492 :  #if _HAS_ITERATOR_DEBUGGING
; 1493 : 		// skip debug checks if the container is initizialed with _IGNORE_MYITERLIST
; 1494 : 		if (this->_Myfirstiter != _IGNORE_MYITERLIST)
; 1495 : 			{
; 1496 : 			if (_Mysize < _Off)
; 1497 : 				{
; 1498 : 				_DEBUG_ERROR("string subscript out of range");
; 1499 : 				_SCL_SECURE_OUT_OF_RANGE;
; 1500 : 				}
; 1501 : 			}
; 1502 :  #else
; 1503 : 		_SCL_SECURE_VALIDATE_RANGE(_Off <= _Mysize);

	mov	edi, DWORD PTR __Off$[esp+4]
	mov	esi, ecx
	cmp	edi, DWORD PTR [esi+20]
	jbe	SHORT $LN1@operator@2
	call	__invalid_parameter_noinfo
$LN1@operator@2:

; 1504 :  #endif /* _HAS_ITERATOR_DEBUGGING */
; 1505 : 
; 1506 : 		return (_Myptr()[_Off]);

	cmp	DWORD PTR [esi+24], 16			; 00000010H
	jb	SHORT $LN6@operator@2
	mov	esi, DWORD PTR [esi+4]
	lea	eax, DWORD PTR [esi+edi]
	pop	edi
	pop	esi

; 1507 : 		}

	ret	4

; 1504 :  #endif /* _HAS_ITERATOR_DEBUGGING */
; 1505 : 
; 1506 : 		return (_Myptr()[_Off]);

$LN6@operator@2:
	lea	eax, DWORD PTR [esi+edi+4]
	pop	edi
	pop	esi

; 1507 : 		}

	ret	4
??A?$basic_string@DU?$char_traits@D@std@@V?$allocator@D@2@@std@@QAEAADI@Z ENDP ; std::basic_string<char,std::char_traits<char>,std::allocator<char> >::operator[]
_TEXT	ENDS
PUBLIC	??D?$ostreambuf_iterator@DU?$char_traits@D@std@@@std@@QAEAAV01@XZ ; std::ostreambuf_iterator<char,std::char_traits<char> >::operator*
; Function compile flags: /Ogtpy
; File c:\program files\microsoft visual studio 8\vc\include\xutility
;	COMDAT ??D?$ostreambuf_iterator@DU?$char_traits@D@std@@@std@@QAEAAV01@XZ
_TEXT	SEGMENT
??D?$ostreambuf_iterator@DU?$char_traits@D@std@@@std@@QAEAAV01@XZ PROC ; std::ostreambuf_iterator<char,std::char_traits<char> >::operator*, COMDAT
; _this$ = ecx

; 2194 : 		{	// pretend to get designated element

	mov	eax, ecx

; 2195 : 		return (*this);
; 2196 : 		}

	ret	0
??D?$ostreambuf_iterator@DU?$char_traits@D@std@@@std@@QAEAAV01@XZ ENDP ; std::ostreambuf_iterator<char,std::char_traits<char> >::operator*
_TEXT	ENDS
PUBLIC	??E?$ostreambuf_iterator@DU?$char_traits@D@std@@@std@@QAEAAV01@XZ ; std::ostreambuf_iterator<char,std::char_traits<char> >::operator++
; Function compile flags: /Ogtpy
;	COMDAT ??E?$ostreambuf_iterator@DU?$char_traits@D@std@@@std@@QAEAAV01@XZ
_TEXT	SEGMENT
??E?$ostreambuf_iterator@DU?$char_traits@D@std@@@std@@QAEAAV01@XZ PROC ; std::ostreambuf_iterator<char,std::char_traits<char> >::operator++, COMDAT
; _this$ = ecx

; 2199 : 		{	// pretend to preincrement

	mov	eax, ecx

; 2200 : 		return (*this);
; 2201 : 		}

	ret	0
??E?$ostreambuf_iterator@DU?$char_traits@D@std@@@std@@QAEAAV01@XZ ENDP ; std::ostreambuf_iterator<char,std::char_traits<char> >::operator++
_TEXT	ENDS
PUBLIC	?decimal_point@?$numpunct@D@std@@QBEDXZ		; std::numpunct<char>::decimal_point
; Function compile flags: /Ogtpy
; File c:\program files\microsoft visual studio 8\vc\include\xlocnum
;	COMDAT ?decimal_point@?$numpunct@D@std@@QBEDXZ
_TEXT	SEGMENT
?decimal_point@?$numpunct@D@std@@QBEDXZ PROC		; std::numpunct<char>::decimal_point, COMDAT
; _this$ = ecx

; 60   : 		return (do_decimal_point());

	mov	eax, DWORD PTR [ecx]
	mov	edx, DWORD PTR [eax+4]
	jmp	edx
?decimal_point@?$numpunct@D@std@@QBEDXZ ENDP		; std::numpunct<char>::decimal_point
_TEXT	ENDS
PUBLIC	?thousands_sep@?$numpunct@D@std@@QBEDXZ		; std::numpunct<char>::thousands_sep
; Function compile flags: /Ogtpy
;	COMDAT ?thousands_sep@?$numpunct@D@std@@QBEDXZ
_TEXT	SEGMENT
?thousands_sep@?$numpunct@D@std@@QBEDXZ PROC		; std::numpunct<char>::thousands_sep, COMDAT
; _this$ = ecx

; 65   : 		return (do_thousands_sep());

	mov	eax, DWORD PTR [ecx]
	mov	edx, DWORD PTR [eax+8]
	jmp	edx
?thousands_sep@?$numpunct@D@std@@QBEDXZ ENDP		; std::numpunct<char>::thousands_sep
_TEXT	ENDS
PUBLIC	?_Tidy@?$numpunct@D@std@@AAEXXZ			; std::numpunct<char>::_Tidy
; Function compile flags: /Ogtpy
;	COMDAT ?_Tidy@?$numpunct@D@std@@AAEXXZ
_TEXT	SEGMENT
?_Tidy@?$numpunct@D@std@@AAEXXZ PROC			; std::numpunct<char>::_Tidy, COMDAT
; _this$ = ecx

; 171  : 		{	// free all storage

	push	esi
	mov	esi, ecx

; 172  : 		_DELETE_CRT_VEC((void *)_Grouping);

	mov	eax, DWORD PTR [esi+8]
	push	eax
	call	??_V@YAXPAX@Z				; operator delete[]

; 173  : 		_DELETE_CRT_VEC((void *)_Falsename);

	mov	ecx, DWORD PTR [esi+16]
	push	ecx
	call	??_V@YAXPAX@Z				; operator delete[]

; 174  : 		_DELETE_CRT_VEC((void *)_Truename);

	mov	edx, DWORD PTR [esi+20]
	push	edx
	call	??_V@YAXPAX@Z				; operator delete[]
	add	esp, 12					; 0000000cH
	pop	esi

; 175  : 		}

	ret	0
?_Tidy@?$numpunct@D@std@@AAEXXZ ENDP			; std::numpunct<char>::_Tidy
_TEXT	ENDS
PUBLIC	?_Chassign@?$basic_string@DU?$char_traits@D@std@@V?$allocator@D@2@@std@@IAEXIID@Z ; std::basic_string<char,std::char_traits<char>,std::allocator<char> >::_Chassign
; Function compile flags: /Ogtpy
; File c:\program files\microsoft visual studio 8\vc\include\xstring
;	COMDAT ?_Chassign@?$basic_string@DU?$char_traits@D@std@@V?$allocator@D@2@@std@@IAEXIID@Z
_TEXT	SEGMENT
__Off$ = 8						; size = 4
__Count$ = 12						; size = 4
__Ch$ = 16						; size = 1
?_Chassign@?$basic_string@DU?$char_traits@D@std@@V?$allocator@D@2@@std@@IAEXIID@Z PROC ; std::basic_string<char,std::char_traits<char>,std::allocator<char> >::_Chassign, COMDAT
; _this$ = ecx

; 1955 : 		if (_Count == 1)

	mov	eax, DWORD PTR __Count$[esp-4]
	cmp	eax, 1
	jne	SHORT $LN2@Chassign

; 1956 : 			_Traits::assign(*(_Myptr() + _Off), _Ch);

	cmp	DWORD PTR [ecx+24], 16			; 00000010H
	jb	SHORT $LN7@Chassign
	mov	ecx, DWORD PTR [ecx+4]
	mov	al, BYTE PTR __Ch$[esp-4]
	mov	edx, DWORD PTR __Off$[esp-4]
	mov	BYTE PTR [ecx+edx], al

; 1959 : 		}

	ret	12					; 0000000cH

; 1956 : 			_Traits::assign(*(_Myptr() + _Off), _Ch);

$LN7@Chassign:
	mov	al, BYTE PTR __Ch$[esp-4]
	mov	edx, DWORD PTR __Off$[esp-4]
	add	ecx, 4
	mov	BYTE PTR [ecx+edx], al

; 1959 : 		}

	ret	12					; 0000000cH
$LN2@Chassign:

; 1957 : 		else
; 1958 : 			_Traits::assign(_Myptr() + _Off, _Count, _Ch);

	cmp	DWORD PTR [ecx+24], 16			; 00000010H
	jb	SHORT $LN13@Chassign
	mov	ecx, DWORD PTR [ecx+4]
	jmp	SHORT $LN14@Chassign
$LN13@Chassign:
	add	ecx, 4
$LN14@Chassign:
	mov	edx, DWORD PTR __Off$[esp-4]
	push	eax
	movsx	eax, BYTE PTR __Ch$[esp]
	push	eax
	add	ecx, edx
	push	ecx
	call	_memset
	add	esp, 12					; 0000000cH

; 1959 : 		}

	ret	12					; 0000000cH
?_Chassign@?$basic_string@DU?$char_traits@D@std@@V?$allocator@D@2@@std@@IAEXIID@Z ENDP ; std::basic_string<char,std::char_traits<char>,std::allocator<char> >::_Chassign
_TEXT	ENDS
PUBLIC	??$_Maklocchr@D@std@@YADDPADABU_Cvtvec@@@Z	; std::_Maklocchr<char>
; Function compile flags: /Ogtpy
; File c:\program files\microsoft visual studio 8\vc\include\xlocale
;	COMDAT ??$_Maklocchr@D@std@@YADDPADABU_Cvtvec@@@Z
_TEXT	SEGMENT
__Byte$ = 8						; size = 1
___formal$ = 12						; size = 4
___formal$ = 16						; size = 4
??$_Maklocchr@D@std@@YADDPADABU_Cvtvec@@@Z PROC		; std::_Maklocchr<char>, COMDAT

; 583  : 	return ((_Elem)(unsigned char)_Byte);

	mov	al, BYTE PTR __Byte$[esp-4]

; 584  : 	}

	ret	0
??$_Maklocchr@D@std@@YADDPADABU_Cvtvec@@@Z ENDP		; std::_Maklocchr<char>
_TEXT	ENDS
PUBLIC	??$_Maklocstr@D@std@@YAPADPBDPADABU_Cvtvec@@@Z	; std::_Maklocstr<char>
EXTRN	??_U@YAPAXI@Z:PROC				; operator new[]
; Function compile flags: /Ogtpy
;	COMDAT ??$_Maklocstr@D@std@@YAPADPBDPADABU_Cvtvec@@@Z
_TEXT	SEGMENT
__Ptr$ = 8						; size = 4
___formal$ = 12						; size = 4
___formal$ = 16						; size = 4
??$_Maklocstr@D@std@@YAPADPBDPADABU_Cvtvec@@@Z PROC	; std::_Maklocstr<char>, COMDAT

; 604  : 	{	// convert C string to _Elem sequence using _Cvtvec

	push	esi
	push	edi

; 605  : 	size_t _Count = ::strlen(_Ptr) + 1;

	mov	edi, DWORD PTR __Ptr$[esp+4]
	mov	eax, edi
	lea	edx, DWORD PTR [eax+1]
	npad	5
$LL8@Maklocstr:
	mov	cl, BYTE PTR [eax]
	add	eax, 1
	test	cl, cl
	jne	SHORT $LL8@Maklocstr
	sub	eax, edx
	lea	esi, DWORD PTR [eax+1]

; 606  : 	_Elem *_Ptrdest = _NEW_CRT _Elem[_Count];

	push	esi
	call	??_U@YAPAXI@Z				; operator new[]
	add	esp, 4

; 607  : 
; 608  : #pragma warning(push)
; 609  : #pragma warning(disable: 6011)
; 610  : 	/* prefast noise */
; 611  : 	for (_Elem *_Ptrnext = _Ptrdest; 0 < _Count; --_Count, ++_Ptrnext, ++_Ptr)

	test	esi, esi
	mov	ecx, eax
	jbe	SHORT $LN1@Maklocstr
	npad	3
$LL3@Maklocstr:

; 612  : 		*_Ptrnext = (_Elem)(unsigned char)*_Ptr;

	mov	dl, BYTE PTR [edi]
	mov	BYTE PTR [ecx], dl
	sub	esi, 1
	add	ecx, 1
	add	edi, 1
	test	esi, esi
	ja	SHORT $LL3@Maklocstr
$LN1@Maklocstr:
	pop	edi
	pop	esi

; 613  : 	return (_Ptrdest);
; 614  : #pragma warning(pop)
; 615  : 	}

	ret	0
??$_Maklocstr@D@std@@YAPADPBDPADABU_Cvtvec@@@Z ENDP	; std::_Maklocstr<char>
_TEXT	ENDS
PUBLIC	??4?$ostreambuf_iterator@DU?$char_traits@D@std@@@std@@QAEAAV01@D@Z ; std::ostreambuf_iterator<char,std::char_traits<char> >::operator=
; Function compile flags: /Ogtpy
; File c:\program files\microsoft visual studio 8\vc\include\xutility
;	COMDAT ??4?$ostreambuf_iterator@DU?$char_traits@D@std@@@std@@QAEAAV01@D@Z
_TEXT	SEGMENT
__Right$ = 8						; size = 1
??4?$ostreambuf_iterator@DU?$char_traits@D@std@@@std@@QAEAAV01@D@Z PROC ; std::ostreambuf_iterator<char,std::char_traits<char> >::operator=, COMDAT
; _this$ = ecx

; 2185 : 		{	// store element and increment

	push	esi
	mov	esi, ecx

; 2186 : 		if (_Strbuf == 0
; 2187 : 			|| traits_type::eq_int_type(_Traits::eof(),
; 2188 : 				_Strbuf->sputc(_Right)))

	mov	ecx, DWORD PTR [esi+8]
	test	ecx, ecx
	je	SHORT $LN1@operator@3
	mov	eax, DWORD PTR [ecx+36]
	cmp	DWORD PTR [eax], 0
	je	SHORT $LN7@operator@3
	mov	edx, DWORD PTR [ecx+52]
	cmp	DWORD PTR [edx], 0
	jle	SHORT $LN7@operator@3
	mov	eax, edx
	add	DWORD PTR [eax], -1
	mov	ecx, DWORD PTR [ecx+36]
	mov	eax, DWORD PTR [ecx]
	lea	edx, DWORD PTR [eax+1]
	mov	DWORD PTR [ecx], edx
	mov	cl, BYTE PTR __Right$[esp]
	mov	BYTE PTR [eax], cl
	movzx	eax, cl
	jmp	SHORT $LN8@operator@3
$LN7@operator@3:
	movzx	edx, BYTE PTR __Right$[esp]
	mov	eax, DWORD PTR [ecx]
	mov	eax, DWORD PTR [eax+4]
	push	edx
	call	eax
$LN8@operator@3:
	cmp	eax, -1
	jne	SHORT $LN23@operator@3
$LN1@operator@3:

; 2189 : 			_Failed = true;

	mov	BYTE PTR [esi+4], 1
$LN23@operator@3:

; 2190 : 		return (*this);

	mov	eax, esi
	pop	esi

; 2191 : 		}

	ret	4
??4?$ostreambuf_iterator@DU?$char_traits@D@std@@@std@@QAEAAV01@D@Z ENDP ; std::ostreambuf_iterator<char,std::char_traits<char> >::operator=
_TEXT	ENDS
PUBLIC	?_Init@?$numpunct@D@std@@IAEXABV_Locinfo@2@@Z	; std::numpunct<char>::_Init
;	COMDAT xdata$x
; File c:\program files\microsoft visual studio 8\vc\include\xlocale
xdata$x	SEGMENT
__catchsym$?_Init@?$numpunct@D@std@@IAEXABV_Locinfo@2@@Z$2 DD 040H
	DD	00H
	DD	00H
	DD	FLAT:__catch$?_Init@?$numpunct@D@std@@IAEXABV_Locinfo@2@@Z$0
__unwindtable$?_Init@?$numpunct@D@std@@IAEXABV_Locinfo@2@@Z DD 0ffffffffH
	DD	00H
	DD	0ffffffffH
	DD	00H
__tryblocktable$?_Init@?$numpunct@D@std@@IAEXABV_Locinfo@2@@Z DD 00H
	DD	00H
	DD	01H
	DD	01H
	DD	FLAT:__catchsym$?_Init@?$numpunct@D@std@@IAEXABV_Locinfo@2@@Z$2
__ehfuncinfo$?_Init@?$numpunct@D@std@@IAEXABV_Locinfo@2@@Z DD 019930522H
	DD	02H
	DD	FLAT:__unwindtable$?_Init@?$numpunct@D@std@@IAEXABV_Locinfo@2@@Z
	DD	01H
	DD	FLAT:__tryblocktable$?_Init@?$numpunct@D@std@@IAEXABV_Locinfo@2@@Z
	DD	2 DUP(00H)
	DD	00H
	DD	01H
; Function compile flags: /Ogtpy
; File c:\program files\microsoft visual studio 8\vc\include\xlocnum
xdata$x	ENDS
;	COMDAT ?_Init@?$numpunct@D@std@@IAEXABV_Locinfo@2@@Z
_TEXT	SEGMENT
$T24334 = -24						; size = 8
$T24333 = -24						; size = 8
$T24332 = -24						; size = 8
_this$ = -20						; size = 4
__$EHRec$ = -16						; size = 16
__Lobj$ = 8						; size = 4
?_Init@?$numpunct@D@std@@IAEXABV_Locinfo@2@@Z PROC	; std::numpunct<char>::_Init, COMDAT
; _this$ = ecx

; 123  : 		{	// initialize from _Lobj

	push	ebp
	mov	ebp, esp
	push	-1
	push	__ehhandler$?_Init@?$numpunct@D@std@@IAEXABV_Locinfo@2@@Z
	mov	eax, DWORD PTR fs:0
	push	eax
	sub	esp, 12					; 0000000cH
	push	ebx
	push	esi
	push	edi
	mov	eax, DWORD PTR ___security_cookie
	xor	eax, ebp
	push	eax
	lea	eax, DWORD PTR __$EHRec$[ebp+4]
	mov	DWORD PTR fs:0, eax
	mov	DWORD PTR __$EHRec$[ebp], esp
	mov	esi, ecx
	mov	DWORD PTR _this$[ebp], esi

; 124  : 		const lconv *_Ptr = _Lobj._Getlconv();

	call	_localeconv

; 125  : 
; 126  : 		_Grouping = 0;

	xor	ebx, ebx
	mov	edi, eax
	mov	DWORD PTR [esi+8], ebx

; 127  : 		_Falsename = 0;

	mov	DWORD PTR [esi+16], ebx

; 128  : 		_Truename = 0;

	mov	DWORD PTR [esi+20], ebx

; 129  : 
; 130  : 		_TRY_BEGIN

	mov	DWORD PTR __$EHRec$[ebp+12], ebx

; 131  : 		_Grouping = _MAKLOCSTR(char, _Ptr->grouping, _Lobj._Getcvt());

	call	__Getcvt
	mov	ecx, DWORD PTR [edi+8]
	lea	eax, DWORD PTR $T24332[ebp]
	push	eax
	push	ebx
	push	ecx
	call	??$_Maklocstr@D@std@@YAPADPBDPADABU_Cvtvec@@@Z ; std::_Maklocstr<char>
	add	esp, 12					; 0000000cH
	mov	DWORD PTR [esi+8], eax

; 132  : 		_Falsename = _MAKLOCSTR(_Elem, _Lobj._Getfalse(), _Lobj._Getcvt());

	call	__Getcvt
	lea	edx, DWORD PTR $T24333[ebp]
	push	edx
	push	ebx
	push	OFFSET ??_C@_05LAPONLG@false?$AA@
	call	??$_Maklocstr@D@std@@YAPADPBDPADABU_Cvtvec@@@Z ; std::_Maklocstr<char>
	add	esp, 12					; 0000000cH
	mov	DWORD PTR [esi+16], eax

; 133  : 		_Truename = _MAKLOCSTR(_Elem, _Lobj._Gettrue(), _Lobj._Getcvt());

	call	__Getcvt
	lea	eax, DWORD PTR $T24334[ebp]
	push	eax
	push	ebx
	push	OFFSET ??_C@_04LOAJBDKD@true?$AA@
	call	??$_Maklocstr@D@std@@YAPADPBDPADABU_Cvtvec@@@Z ; std::_Maklocstr<char>
	add	esp, 12					; 0000000cH
	mov	DWORD PTR [esi+20], eax

; 137  : 		_CATCH_END
; 138  : 
; 139  : 		_Dp = _MAKLOCCHR(_Elem, _Ptr->decimal_point[0], _Lobj._Getcvt());

	call	__Getcvt
	mov	ecx, DWORD PTR [edi]
	mov	dl, BYTE PTR [ecx]
	mov	BYTE PTR [esi+12], dl

; 140  : 		_Kseparator =
; 141  : 			_MAKLOCCHR(_Elem, _Ptr->thousands_sep[0], _Lobj._Getcvt());

	call	__Getcvt
	mov	eax, DWORD PTR [edi+4]
	mov	cl, BYTE PTR [eax]
	mov	BYTE PTR [esi+13], cl

; 142  : 		}

	mov	ecx, DWORD PTR __$EHRec$[ebp+4]
	mov	DWORD PTR fs:0, ecx
	pop	ecx
	pop	edi
	pop	esi
	pop	ebx
	mov	esp, ebp
	pop	ebp
	ret	4
__catch$?_Init@?$numpunct@D@std@@IAEXABV_Locinfo@2@@Z$0:

; 134  : 		_CATCH_ALL
; 135  : 		_Tidy();

	mov	ecx, DWORD PTR _this$[ebp]
	call	?_Tidy@?$numpunct@D@std@@AAEXXZ		; std::numpunct<char>::_Tidy

; 136  : 		_RERAISE;

	xor	ebx, ebx
	push	ebx
	push	ebx
	call	__CxxThrowException@8
$LN29@Init:
	int	3
_TEXT	ENDS
;	COMDAT text$x
text$x	SEGMENT
__ehhandler$?_Init@?$numpunct@D@std@@IAEXABV_Locinfo@2@@Z:
	mov	edx, DWORD PTR [esp+8]
	lea	eax, DWORD PTR [edx+12]
	mov	ecx, DWORD PTR [edx-28]
	xor	ecx, eax
	call	@__security_check_cookie@4
	mov	eax, OFFSET __ehfuncinfo$?_Init@?$numpunct@D@std@@IAEXABV_Locinfo@2@@Z
	jmp	___CxxFrameHandler3
text$x	ENDS
?_Init@?$numpunct@D@std@@IAEXABV_Locinfo@2@@Z ENDP	; std::numpunct<char>::_Init
PUBLIC	?_Put@?$num_put@DV?$ostreambuf_iterator@DU?$char_traits@D@std@@@std@@@std@@ABA?AV?$ostreambuf_iterator@DU?$char_traits@D@std@@@2@V32@PBDI@Z ; std::num_put<char,std::ostreambuf_iterator<char,std::char_traits<char> > >::_Put
; Function compile flags: /Ogtpy
;	COMDAT ?_Put@?$num_put@DV?$ostreambuf_iterator@DU?$char_traits@D@std@@@std@@@std@@ABA?AV?$ostreambuf_iterator@DU?$char_traits@D@std@@@2@V32@PBDI@Z
_TEXT	SEGMENT
_this$ = 8						; size = 4
___$ReturnUdt$ = 12					; size = 4
__Dest$ = 16						; size = 12
__Ptr$ = 28						; size = 4
__Count$ = 32						; size = 4
?_Put@?$num_put@DV?$ostreambuf_iterator@DU?$char_traits@D@std@@@std@@@std@@ABA?AV?$ostreambuf_iterator@DU?$char_traits@D@std@@@2@V32@PBDI@Z PROC ; std::num_put<char,std::ostreambuf_iterator<char,std::char_traits<char> > >::_Put, COMDAT

; 1314 : 		{	// put [_Ptr, _Ptr + _Count) to _Dest

	push	ebp

; 1315 : 		for (; 0 < _Count; --_Count, ++_Dest, ++_Ptr)

	mov	ebp, DWORD PTR __Count$[esp]
	test	ebp, ebp
	push	esi
	mov	esi, DWORD PTR __Dest$[esp+12]
	jbe	SHORT $LN1@Put
	push	ebx
	push	edi
	mov	edi, DWORD PTR __Ptr$[esp+12]
$LL3@Put:

; 1316 : 			*_Dest = *_Ptr;

	test	esi, esi
	je	SHORT $LN10@Put
	mov	eax, DWORD PTR [esi+36]
	cmp	DWORD PTR [eax], 0
	mov	dl, BYTE PTR [edi]
	je	SHORT $LN16@Put
	mov	ecx, DWORD PTR [esi+52]
	cmp	DWORD PTR [ecx], 0
	jle	SHORT $LN16@Put
	mov	eax, ecx
	add	DWORD PTR [eax], -1
	mov	eax, DWORD PTR [esi+36]
	mov	ecx, DWORD PTR [eax]
	lea	ebx, DWORD PTR [ecx+1]
	mov	DWORD PTR [eax], ebx
	mov	BYTE PTR [ecx], dl
	movzx	eax, dl
	jmp	SHORT $LN17@Put
$LN16@Put:
	mov	eax, DWORD PTR [esi]
	movzx	ecx, dl
	mov	edx, DWORD PTR [eax+4]
	push	ecx
	mov	ecx, esi
	call	edx
$LN17@Put:
	cmp	eax, -1
	jne	SHORT $LN2@Put
$LN10@Put:
	mov	BYTE PTR __Dest$[esp+16], 1
$LN2@Put:

; 1315 : 		for (; 0 < _Count; --_Count, ++_Dest, ++_Ptr)

	sub	ebp, 1
	add	edi, 1
	test	ebp, ebp
	ja	SHORT $LL3@Put
	pop	edi
	pop	ebx
$LN1@Put:

; 1317 : 		return (_Dest);

	mov	eax, DWORD PTR ___$ReturnUdt$[esp+4]
	mov	ecx, DWORD PTR __Dest$[esp+4]
	mov	edx, DWORD PTR __Dest$[esp+8]
	mov	DWORD PTR [eax], ecx
	mov	DWORD PTR [eax+4], edx
	mov	DWORD PTR [eax+8], esi
	pop	esi
	pop	ebp

; 1318 : 		}

	ret	0
?_Put@?$num_put@DV?$ostreambuf_iterator@DU?$char_traits@D@std@@@std@@@std@@ABA?AV?$ostreambuf_iterator@DU?$char_traits@D@std@@@2@V32@PBDI@Z ENDP ; std::num_put<char,std::ostreambuf_iterator<char,std::char_traits<char> > >::_Put
_TEXT	ENDS
PUBLIC	?_Rep@?$num_put@DV?$ostreambuf_iterator@DU?$char_traits@D@std@@@std@@@std@@ABA?AV?$ostreambuf_iterator@DU?$char_traits@D@std@@@2@V32@DI@Z ; std::num_put<char,std::ostreambuf_iterator<char,std::char_traits<char> > >::_Rep
; Function compile flags: /Ogtpy
;	COMDAT ?_Rep@?$num_put@DV?$ostreambuf_iterator@DU?$char_traits@D@std@@@std@@@std@@ABA?AV?$ostreambuf_iterator@DU?$char_traits@D@std@@@2@V32@DI@Z
_TEXT	SEGMENT
_this$ = 8						; size = 4
___$ReturnUdt$ = 12					; size = 4
__Dest$ = 16						; size = 12
__Ch$ = 28						; size = 1
__Count$ = 32						; size = 4
?_Rep@?$num_put@DV?$ostreambuf_iterator@DU?$char_traits@D@std@@@std@@@std@@ABA?AV?$ostreambuf_iterator@DU?$char_traits@D@std@@@2@V32@DI@Z PROC ; std::num_put<char,std::ostreambuf_iterator<char,std::char_traits<char> > >::_Rep, COMDAT

; 1349 : 		{	// put _Count * _Ch to _Dest

	push	esi

; 1350 : 		for (; 0 < _Count; --_Count, ++_Dest)

	mov	esi, DWORD PTR __Dest$[esp+8]
	push	edi
	mov	edi, DWORD PTR __Count$[esp+4]
	test	edi, edi
	jbe	SHORT $LN1@Rep
	push	ebx
	mov	bl, BYTE PTR __Ch$[esp+8]
$LL6@Rep:

; 1351 : 			*_Dest = _Ch;

	test	esi, esi
	je	SHORT $LN10@Rep
	mov	eax, DWORD PTR [esi+36]
	cmp	DWORD PTR [eax], 0
	je	SHORT $LN16@Rep
	mov	ecx, DWORD PTR [esi+52]
	cmp	DWORD PTR [ecx], 0
	jle	SHORT $LN16@Rep
	mov	eax, ecx
	add	DWORD PTR [eax], -1
	mov	eax, DWORD PTR [esi+36]
	mov	ecx, DWORD PTR [eax]
	lea	edx, DWORD PTR [ecx+1]
	mov	DWORD PTR [eax], edx
	mov	BYTE PTR [ecx], bl
	movzx	eax, bl
	jmp	SHORT $LN17@Rep
$LN16@Rep:
	mov	eax, DWORD PTR [esi]
	mov	edx, DWORD PTR [eax+4]
	movzx	ecx, bl
	push	ecx
	mov	ecx, esi
	call	edx
$LN17@Rep:
	cmp	eax, -1
	jne	SHORT $LN2@Rep
$LN10@Rep:
	mov	BYTE PTR __Dest$[esp+12], 1
$LN2@Rep:

; 1350 : 		for (; 0 < _Count; --_Count, ++_Dest)

	sub	edi, 1
	jne	SHORT $LL6@Rep
	pop	ebx
$LN1@Rep:

; 1352 : 		return (_Dest);

	mov	eax, DWORD PTR ___$ReturnUdt$[esp+4]
	mov	ecx, DWORD PTR __Dest$[esp+4]
	mov	edx, DWORD PTR __Dest$[esp+8]
	mov	DWORD PTR [eax], ecx
	mov	DWORD PTR [eax+4], edx
	pop	edi
	mov	DWORD PTR [eax+8], esi
	pop	esi

; 1353 : 		}

	ret	0
?_Rep@?$num_put@DV?$ostreambuf_iterator@DU?$char_traits@D@std@@@std@@@std@@ABA?AV?$ostreambuf_iterator@DU?$char_traits@D@std@@@2@V32@DI@Z ENDP ; std::num_put<char,std::ostreambuf_iterator<char,std::char_traits<char> > >::_Rep
_TEXT	ENDS
PUBLIC	?_Putc@?$num_put@DV?$ostreambuf_iterator@DU?$char_traits@D@std@@@std@@@std@@ABA?AV?$ostreambuf_iterator@DU?$char_traits@D@std@@@2@V32@PBDI@Z ; std::num_put<char,std::ostreambuf_iterator<char,std::char_traits<char> > >::_Putc
; Function compile flags: /Ogtpy
;	COMDAT ?_Putc@?$num_put@DV?$ostreambuf_iterator@DU?$char_traits@D@std@@@std@@@std@@ABA?AV?$ostreambuf_iterator@DU?$char_traits@D@std@@@2@V32@PBDI@Z
_TEXT	SEGMENT
_this$ = 8						; size = 4
___$ReturnUdt$ = 12					; size = 4
__Dest$ = 16						; size = 12
__Ptr$ = 28						; size = 4
__Count$ = 32						; size = 4
?_Putc@?$num_put@DV?$ostreambuf_iterator@DU?$char_traits@D@std@@@std@@@std@@ABA?AV?$ostreambuf_iterator@DU?$char_traits@D@std@@@2@V32@PBDI@Z PROC ; std::num_put<char,std::ostreambuf_iterator<char,std::char_traits<char> > >::_Putc, COMDAT

; 1322 : 		{	// put char sequence [_Ptr, _Ptr + _Count) to _Dest

	push	ebp

; 1323 : 		for (; 0 < _Count; --_Count, ++_Dest, ++_Ptr)

	mov	ebp, DWORD PTR __Count$[esp]
	test	ebp, ebp
	push	esi
	mov	esi, DWORD PTR __Dest$[esp+12]
	jbe	SHORT $LN1@Putc
	push	ebx
	push	edi
	mov	edi, DWORD PTR __Ptr$[esp+12]
$LL3@Putc:

; 1324 : 			*_Dest = _MAKLOCCHR(_Elem, *_Ptr, _Cvt);

	test	esi, esi
	je	SHORT $LN12@Putc
	mov	eax, DWORD PTR [esi+36]
	cmp	DWORD PTR [eax], 0
	mov	dl, BYTE PTR [edi]
	je	SHORT $LN18@Putc
	mov	ecx, DWORD PTR [esi+52]
	cmp	DWORD PTR [ecx], 0
	jle	SHORT $LN18@Putc
	mov	eax, ecx
	add	DWORD PTR [eax], -1
	mov	eax, DWORD PTR [esi+36]
	mov	ecx, DWORD PTR [eax]
	lea	ebx, DWORD PTR [ecx+1]
	mov	DWORD PTR [eax], ebx
	mov	BYTE PTR [ecx], dl
	movzx	eax, dl
	jmp	SHORT $LN19@Putc
$LN18@Putc:
	mov	eax, DWORD PTR [esi]
	movzx	ecx, dl
	mov	edx, DWORD PTR [eax+4]
	push	ecx
	mov	ecx, esi
	call	edx
$LN19@Putc:
	cmp	eax, -1
	jne	SHORT $LN2@Putc
$LN12@Putc:
	mov	BYTE PTR __Dest$[esp+16], 1
$LN2@Putc:

; 1323 : 		for (; 0 < _Count; --_Count, ++_Dest, ++_Ptr)

	sub	ebp, 1
	add	edi, 1
	test	ebp, ebp
	ja	SHORT $LL3@Putc
	pop	edi
	pop	ebx
$LN1@Putc:

; 1325 : 		return (_Dest);

	mov	eax, DWORD PTR ___$ReturnUdt$[esp+4]
	mov	ecx, DWORD PTR __Dest$[esp+4]
	mov	edx, DWORD PTR __Dest$[esp+8]
	mov	DWORD PTR [eax], ecx
	mov	DWORD PTR [eax+4], edx
	mov	DWORD PTR [eax+8], esi
	pop	esi
	pop	ebp

; 1326 : 		}

	ret	0
?_Putc@?$num_put@DV?$ostreambuf_iterator@DU?$char_traits@D@std@@@std@@@std@@ABA?AV?$ostreambuf_iterator@DU?$char_traits@D@std@@@2@V32@PBDI@Z ENDP ; std::num_put<char,std::ostreambuf_iterator<char,std::char_traits<char> > >::_Putc
_TEXT	ENDS
PUBLIC	?_Putgrouped@?$num_put@DV?$ostreambuf_iterator@DU?$char_traits@D@std@@@std@@@std@@ABA?AV?$ostreambuf_iterator@DU?$char_traits@D@std@@@2@V32@PBDID@Z ; std::num_put<char,std::ostreambuf_iterator<char,std::char_traits<char> > >::_Putgrouped
EXTRN	_memchr:PROC
; Function compile flags: /Ogtpy
;	COMDAT ?_Putgrouped@?$num_put@DV?$ostreambuf_iterator@DU?$char_traits@D@std@@@std@@@std@@ABA?AV?$ostreambuf_iterator@DU?$char_traits@D@std@@@2@V32@PBDID@Z
_TEXT	SEGMENT
$T24648 = -24						; size = 12
$T24649 = -12						; size = 12
_this$ = 8						; size = 4
___$ReturnUdt$ = 12					; size = 4
__Dest$ = 16						; size = 12
__Ptr$ = 28						; size = 4
__Count$ = 32						; size = 4
__Kseparator$ = 36					; size = 1
?_Putgrouped@?$num_put@DV?$ostreambuf_iterator@DU?$char_traits@D@std@@@std@@@std@@ABA?AV?$ostreambuf_iterator@DU?$char_traits@D@std@@@2@V32@PBDID@Z PROC ; std::num_put<char,std::ostreambuf_iterator<char,std::char_traits<char> > >::_Putgrouped, COMDAT

; 1330 : 		{	// put char sequence [_Ptr, _Ptr + _Count) to _Dest with commas

	sub	esp, 24					; 00000018H
	push	ebx
	mov	ebx, DWORD PTR __Dest$[esp+28]
	push	ebp
	mov	ebp, DWORD PTR __Dest$[esp+28]
	push	esi
	push	edi
	mov	edi, DWORD PTR __Ptr$[esp+36]
$LL5@Putgrouped:

; 1331 : 		for (; ; ++_Ptr, --_Count)
; 1332 : 			{	// put field with thousands separators for NULs
; 1333 : 			const char *_Pend =
; 1334 : 				(const char *)::memchr(_Ptr, '\0', _Count);

	mov	esi, DWORD PTR __Count$[esp+36]
	push	esi
	push	0
	push	edi
	call	_memchr
	add	esp, 12					; 0000000cH

; 1335 : 			size_t _Groupsize = _Pend != 0 ? _Pend - _Ptr : _Count;

	test	eax, eax
	je	SHORT $LN8@Putgrouped
	sub	eax, edi
	mov	esi, eax
$LN8@Putgrouped:

; 1336 : 
; 1337 : 			_Dest = _Putc(_Dest, _Ptr, _Groupsize);

	mov	ecx, DWORD PTR __Dest$[esp+44]
	push	esi
	push	edi
	sub	esp, 12					; 0000000cH
	mov	eax, esp
	mov	DWORD PTR [eax], ebp
	mov	DWORD PTR [eax+4], ebx
	lea	edx, DWORD PTR $T24648[esp+60]
	mov	DWORD PTR [eax+8], ecx
	mov	eax, DWORD PTR _this$[esp+56]
	push	edx
	push	eax
	call	?_Putc@?$num_put@DV?$ostreambuf_iterator@DU?$char_traits@D@std@@@std@@@std@@ABA?AV?$ostreambuf_iterator@DU?$char_traits@D@std@@@2@V32@PBDI@Z ; std::num_put<char,std::ostreambuf_iterator<char,std::char_traits<char> > >::_Putc
	mov	ecx, DWORD PTR [eax+8]
	mov	ebp, DWORD PTR [eax]
	mov	ebx, DWORD PTR [eax+4]
	add	esp, 28					; 0000001cH

; 1338 : 			_Ptr += _Groupsize, _Count -= _Groupsize;

	add	edi, esi
	sub	DWORD PTR __Count$[esp+36], esi
	mov	DWORD PTR __Dest$[esp+44], ecx

; 1339 : 			if (_Count == 0)

	je	SHORT $LN12@Putgrouped

; 1340 : 				break;
; 1341 : 			if (_Kseparator != (_Elem)0)

	mov	ecx, DWORD PTR __Kseparator$[esp+36]
	test	cl, cl
	je	SHORT $LN4@Putgrouped

; 1342 : 				_Dest = _Rep(_Dest, _Kseparator, 1);

	mov	eax, DWORD PTR [eax+8]
	push	1
	push	ecx
	sub	esp, 12					; 0000000cH
	mov	ecx, esp
	mov	edx, ebp
	mov	DWORD PTR [ecx], edx
	mov	edx, ebx
	mov	DWORD PTR [ecx+4], edx
	mov	edx, DWORD PTR _this$[esp+56]
	mov	DWORD PTR [ecx+8], eax
